(lp0
I0
aI7
aI8
aI9
aI11
aI12
aI15
aI24
aI26
aI28
aI31
aI32
aI33
aI34
aI35
aI36
aI37
aI38
aI39
aI40
aI41
aI42
aI43
aI44
aI45
aI46
aI50
aI51
aI52
aI53
aI54
aI55
aI56
aI59
aI63
aI64
aI65
aI66
aI70
aI76
aI83
aI84
aI85
aI86
aI87
aI88
aI89
aI90
aI91
aI92
aI93
aI94
aI95
aI96
aI97
aI98
a.