(lp0
(dp1
S'author'
p2
S'TODO grabber'
p3
sS'text'
p4
S'Add padding to notification labels, maybe also border radius.'
p5
sS'detail'
p6
S'TODO grabbed from /Users/wangsw/Workspace/ObjectC/Passone/src/Passone/Passone/CPNotificationCenter.m, line 70.'
p7
sS'exported'
p8
I01
sS'time'
p9
S'2013-06-29 18:42:26'
p10
sS'path'
p11
S'/Users/wangsw/Workspace/ObjectC/Passone/src/Passone/Passone/CPNotificationCenter.m'
p12
sS'condition'
p13
S'done'
p14
saNaNaNaNaNaNa(dp15
g2
g3
sg4
S'Show the password edit view with an animation of alpha from 0.0 to 1.0.'
p16
sg6
S'TODO grabbed from /Users/wangsw/Workspace/ObjectC/Passone/src/Passone/Passone/CPPassEditViewManager.m, line 74.'
p17
sg8
I01
sg9
S'2013-06-29 18:42:26'
p18
sg11
S'/Users/wangsw/Workspace/ObjectC/Passone/src/Passone/Passone/CPPassEditViewManager.m'
p19
sg13
S'done'
p20
sa(dp21
g2
g3
sg4
S'Remove password edit view with an animation of alpha from 0.0 to 1.0.'
p22
sg6
S'TODO grabbed from /Users/wangsw/Workspace/ObjectC/Passone/src/Passone/Passone/CPPassEditViewManager.m, line 120.'
p23
sg8
I01
sg9
S'2013-06-29 18:42:26'
p24
sg11
g19
sg13
g20
sa(dp25
g2
g3
sg4
S'(IN UNIT TEST) Use changable data to replace @"changed".'
p26
sg6
S'TODO grabbed from /Users/wangsw/Workspace/ObjectC/Passone/src/Passone/PassoneTests/CPPassDataManagerTests.m, line 47.'
p27
sg8
I00
sg9
S'2013-06-29 18:42:26'
p28
sg11
S'/Users/wangsw/Workspace/ObjectC/Passone/src/Passone/PassoneTests/CPPassDataManagerTests.m'
p29
sg13
S'remv'
p30
saNa(dp31
S'author'
p32
S'TODO grabber'
p33
sS'text'
p34
S'Change height of notification labels for longer text.'
p35
sS'detail'
p36
S'TODO grabbed from /Users/wangsw/Workspace/ObjectC/Passone/src/Passone/Passone/CPNotificationCenter.m, line 71.'
p37
sS'exported'
p38
I01
sS'time'
p39
S'2013-06-29 20:19:21'
p40
sS'path'
p41
S'/Users/wangsw/Workspace/ObjectC/Passone/src/Passone/Passone/CPNotificationCenter.m'
p42
sS'condition'
p43
g14
sa(dp44
S'author'
p45
S'TODO grabber'
p46
sS'text'
p47
S"Calculated notification label width doesn't fit the pass grid. 1px difference. Need change."
p48
sS'detail'
p49
S'TODO grabbed from /Users/wangsw/Workspace/ObjectC/Passone/src/Passone/Passone/CPNotificationCenter.m, line 54.'
p50
sS'exported'
p51
I01
sS'time'
p52
S'2013-06-30 08:57:28'
p53
sS'path'
p54
S'/Users/wangsw/Workspace/ObjectC/Passone/src/Passone/Passone/CPNotificationCenter.m'
p55
sS'condition'
p56
S'done'
p57
saNaNa(dp58
S'author'
p59
S'TODO grabber'
p60
sS'text'
p61
S'Adjust pass cell shadow.'
p62
sS'detail'
p63
S'TODO grabbed from /Users/codingpotato/Development/Passone/src/Passone/Passone/CPPassCell.m, line 27.'
p64
sS'exported'
p65
I00
sS'time'
p66
S'2013-07-02 13:21:38'
p67
sS'path'
p68
S'/Users/codingpotato/Development/Passone/src/Passone/Passone/CPPassCell.m'
p69
sS'condition'
p70
S'remv'
p71
saNaNaNaNaNaNaNaNa(dp72
S'author'
p73
S'TODO grabber'
p74
sS'text'
p75
S'Limit the number of notifications.'
p76
sS'detail'
p77
S'TODO grabbed from src/Passone/Passone/CPNotificationCenter.m, line 99.'
p78
sS'exported'
p79
I01
sS'time'
p80
S'2013-07-02 21:16:13'
p81
sS'path'
p82
S'src/Passone/Passone/CPNotificationCenter.m'
p83
sS'condition'
p84
S'done'
p85
saNa(dp86
g73
g74
sg75
S'Now use long press to simulate two-finger swipe, change it later.'
p87
sg77
S'TODO grabbed from src/Passone/Passone/CPPassCell.m, line 57.'
p88
sg79
I00
sg80
S'2013-07-02 21:16:13'
p89
sg82
S'src/Passone/Passone/CPPassCell.m'
p90
sg84
S'remv'
p91
sa(dp92
g73
g74
sg75
S'The third and last two colors for cells are too similar, so they need to be changed.'
p93
sg77
S'TODO grabbed from src/Passone/Passone/CPPassDataManager.m, line 48.'
p94
sg79
I00
sg80
S'2013-07-02 21:16:13'
p95
sg82
S'src/Passone/Passone/CPPassDataManager.m'
p96
sg84
S'open'
p97
sa(dp98
g73
g74
sg75
S'BUG! Cannot undo before setPasswordText.'
p99
sg77
S'TODO grabbed from src/Passone/Passone/CPPassDataManager.m, line 115.'
p100
sg79
I01
sg80
S'2013-07-02 21:16:13'
p101
sg82
g96
sg84
S'done'
p102
sa(dp103
g73
g74
sg75
S'MAY ABORT! Handle the error appropriately when saving context.'
p104
sg77
S'TODO grabbed from src/Passone/Passone/CPPassDataManager.m, line 166.'
p105
sg79
I00
sg80
S'2013-07-02 21:16:13'
p106
sg82
g96
sg84
g97
sa(dp107
g73
g74
sg75
S'MAY ABORT! Handle the error appropriately when initializing persistent store coordinator.'
p108
sg77
S'TODO grabbed from src/Passone/Passone/CPPassDataManager.m, line 203.'
p109
sg79
I00
sg80
S'2013-07-02 21:16:13'
p110
sg82
g96
sg84
g97
sa(dp111
g73
g74
sg75
S"When showing pass edit view, check 'password.isUsed'."
p112
sg77
S'TODO grabbed from src/Passone/Passone/CPPassEditViewManager.m, line 61.'
p113
sg79
I01
sg80
S'2013-07-02 21:16:13'
p114
sg82
S'src/Passone/Passone/CPPassEditViewManager.m'
p115
sg84
S'done'
p116
sa(dp117
g73
g74
sg75
S'When showing pass edit view, if the cell is unset, focus on the text field.'
p118
sg77
S'TODO grabbed from src/Passone/Passone/CPPassEditViewManager.m, line 72.'
p119
sg79
I01
sg80
S'2013-07-02 21:16:13'
p120
sg82
g115
sg84
S'done'
p121
sa(dp122
g73
g74
sg75
S'When showing pass edit view, if the cell has been set, hide the password for security.'
p123
sg77
S'TODO grabbed from src/Passone/Passone/CPPassEditViewManager.m, line 75.'
p124
sg79
I01
sg80
S'2013-07-02 21:16:13'
p125
sg82
g115
sg84
S'done'
p126
sa(dp127
S'author'
p128
S'TODO grabber'
p129
sS'text'
p130
S'When showing pass edit view, animate its background color if pass cell is gray.'
p131
sS'detail'
p132
S'TODO grabbed from src/Passone/Passone/CPPassEditViewManager.m, line 61.'
p133
sS'exported'
p134
I01
sS'time'
p135
S'2013-07-04 17:52:44'
p136
sS'path'
p137
S'src/Passone/Passone/CPPassEditViewManager.m'
p138
sS'condition'
p139
S'done'
p140
sa(dp141
S'author'
p142
S'TODO grabber'
p143
sS'text'
p144
S"Move 'backgroundColorOfPassword:' into CPPassword"
p145
sS'detail'
p146
S'TODO grabbed from src/Passone/Passone/CPPassGridManager.m, line 151.'
p147
sS'exported'
p148
I01
sS'time'
p149
S'2013-07-04 17:55:52'
p150
sS'path'
p151
S'src/Passone/Passone/CPPassGridManager.m'
p152
sS'condition'
p153
g140
sa(dp154
S'author'
p155
S'TODO grabber'
p156
sS'text'
p157
S'If password text is set to empty, mark it with not used.'
p158
sS'detail'
p159
S'TODO grabbed from src/Passone/Passone/CPPassDataManager.m, line 89.'
p160
sS'exported'
p161
I01
sS'time'
p162
S'2013-07-04 18:05:54'
p163
sS'path'
p164
S'src/Passone/Passone/CPPassDataManager.m'
p165
sS'condition'
p166
S'done'
p167
sa(dp168
S'author'
p169
S'TODO grabber'
p170
sS'text'
p171
S'When hiding pass edit view, animate its background color if pass cell is gray.'
p172
sS'detail'
p173
S'TODO grabbed from src/Passone/Passone/CPPassEditViewManager.m, line 135.'
p174
sS'exported'
p175
I01
sS'time'
p176
S'2013-07-04 18:07:51'
p177
sS'path'
p178
S'src/Passone/Passone/CPPassEditViewManager.m'
p179
sS'condition'
p180
S'done'
p181
sa(dp182
S'author'
p183
S'TODO grabber'
p184
sS'text'
p185
S'Tap once on pass cell to copy password. Tap twice to show pass edit view.'
p186
sS'detail'
p187
S'TODO grabbed from src/Passone/Passone/CPPassCell.m, line 44.'
p188
sS'exported'
p189
I01
sS'time'
p190
S'2013-07-04 18:32:57'
p191
sS'path'
p192
S'src/Passone/Passone/CPPassCell.m'
p193
sS'condition'
p194
S'done'
p195
sa(dp196
S'author'
p197
S'TODO grabber'
p198
sS'text'
p199
S'Show notification when removing a pass cell by setting an empty text.'
p200
sS'detail'
p201
S'TODO grabbed from src/Passone/Passone/CPPassDataManager.m, line 80.'
p202
sS'exported'
p203
I01
sS'time'
p204
S'2013-07-05 18:28:53'
p205
sS'path'
p206
S'src/Passone/Passone/CPPassDataManager.m'
p207
sS'condition'
p208
S'done'
p209
sa(dp210
S'author'
p211
S'TODO grabber'
p212
sS'text'
p213
S'Handling pass cell pan began, start removing animation.'
p214
sS'detail'
p215
S'TODO grabbed from src/Passone/Passone/CPPassCell.m, line 80.'
p216
sS'exported'
p217
I01
sS'time'
p218
S'2013-07-05 18:38:36'
p219
sS'path'
p220
S'src/Passone/Passone/CPPassCell.m'
p221
sS'condition'
p222
S'done'
p223
sa(dp224
g211
g212
sg213
S'Handling pass cell pan changed, record translation and animate.'
p225
sg215
S'TODO grabbed from src/Passone/Passone/CPPassCell.m, line 89.'
p226
sg217
I01
sg218
S'2013-07-05 18:38:36'
p227
sg220
g221
sg222
g223
sa(dp228
g211
g212
sg213
S'Handling pass cell pan ended, stop removing animation.'
p229
sg215
S'TODO grabbed from src/Passone/Passone/CPPassCell.m, line 134.'
p230
sg217
I01
sg218
S'2013-07-05 18:38:36'
p231
sg220
g221
sg222
S'done'
p232
sa(dp233
g211
g212
sg213
S'Handling pass cell pan ended, check if translation reach 50%.'
p234
sg215
S'TODO grabbed from src/Passone/Passone/CPPassCell.m, line 135.'
p235
sg217
I01
sg218
S'2013-07-05 18:38:36'
p236
sg220
g221
sg222
g232
sa(dp237
g211
g212
sg213
S'Handling pass cell pan ended, may directly access model instead of delegate.'
p238
sg215
S'TODO grabbed from src/Passone/Passone/CPPassCell.m, line 136.'
p239
sg217
I01
sg218
S'2013-07-05 18:38:36'
p240
sg220
g221
sg222
g232
sa(dp241
S'author'
p242
S'TODO grabber'
p243
sS'text'
p244
S"Handling pass cell pan changed, adding text 'Swipe/Release to remove'."
p245
sS'detail'
p246
S'TODO grabbed from src/Passone/Passone/CPPassCell.m, line 122.'
p247
sS'exported'
p248
I01
sS'time'
p249
S'2013-07-06 18:23:11'
p250
sS'path'
p251
S'src/Passone/Passone/CPPassCell.m'
p252
sS'condition'
p253
S'done'
p254
sa(dp255
g242
g243
sg244
S'Move creation of CPNotificationCenter to proper place.'
p256
sg246
S'TODO grabbed from src/Passone/Passone/CPPassGridManager.m, line 81.'
p257
sg248
I01
sg249
S'2013-07-06 18:23:11'
p258
sg251
S'src/Passone/Passone/CPPassGridManager.m'
p259
sg253
S'done'
p260
sa(dp261
S'author'
p262
S'TODO grabber'
p263
sS'text'
p264
S'Adjust font of pass cell removing label.'
p265
sS'detail'
p266
S'TODO grabbed from src/Passone/Passone/CPPassCell.m, line 194.'
p267
sS'exported'
p268
I00
sS'time'
p269
S'2013-07-06 21:10:14'
p270
sS'path'
p271
S'src/Passone/Passone/CPPassCell.m'
p272
sS'condition'
p273
g97
sa(dp274
S'author'
p275
S'TODO grabber'
p276
sS'text'
p277
S'Change behavior of pass cell removing view & label if cannot toggle remove state.'
p278
sS'detail'
p279
S'TODO grabbed from src/Passone/Passone/CPPassCell.m, line 282.'
p280
sS'exported'
p281
I00
sS'time'
p282
S'2013-07-06 21:28:07'
p283
sS'path'
p284
S'src/Passone/Passone/CPPassCell.m'
p285
sS'condition'
p286
g97
sa(dp287
S'author'
p288
S'TODO grabber'
p289
sS'text'
p290
S'Write code to start removing a memo cell.'
p291
sS'detail'
p292
S'TODO grabbed from src/Passone/Passone/CPSearchViewManager.m, line 248.'
p293
sS'exported'
p294
I01
sS'time'
p295
S'2013-07-17 18:37:03'
p296
sS'path'
p297
S'src/Passone/Passone/CPSearchViewManager.m'
p298
sS'condition'
p299
S'done'
p300
sa(dp301
g288
g289
sg290
S'Write code to continue removing a memo cell.'
p302
sg292
S'TODO grabbed from src/Passone/Passone/CPSearchViewManager.m, line 262.'
p303
sg294
I01
sg295
S'2013-07-17 18:37:03'
p304
sg297
g298
sg299
g300
sa(dp305
g288
g289
sg290
S'Write code to stop removing a memo cell.'
p306
sg292
S'TODO grabbed from src/Passone/Passone/CPSearchViewManager.m, line 299.'
p307
sg294
I00
sg295
S'2013-07-17 18:37:03'
p308
sg297
g298
sg299
S'remv'
p309
sa(dp310
S'author'
p311
S'TODO grabber'
p312
sS'text'
p313
S"When removing a memo cell, show 'Swipe/Release to remove'."
p314
sS'detail'
p315
S'TODO grabbed from src/Passone/Passone/CPSearchViewManager.m, line 286.'
p316
sS'exported'
p317
I00
sS'time'
p318
S'2013-07-18 18:40:19'
p319
sS'path'
p320
S'src/Passone/Passone/CPSearchViewManager.m'
p321
sS'condition'
p322
S'remv'
p323
sa(dp324
S'author'
p325
S'TODO grabber'
p326
sS'text'
p327
S'Set the return key type of text field in Pass Edit View to done.'
p328
sS'detail'
p329
S'TODO grabbed from src/Passone/Passone/CPPassEditViewManager.m, line 169.'
p330
sS'exported'
p331
I01
sS'time'
p332
S'2013-08-03 16:18:40'
p333
sS'path'
p334
S'src/Passone/Passone/CPPassEditViewManager.m'
p335
sS'condition'
p336
S'done'
p337
sa(dp338
S'author'
p339
S'TODO grabber'
p340
sS'text'
p341
S"When removing a memo cell, show 'Swipe/Release to remove'."
p342
sS'detail'
p343
S'TODO grabbed from src/Passone/Passone/CPMemoCollectionViewManager.m, line 172.'
p344
sS'exported'
p345
I01
sS'time'
p346
S'2013-08-04 16:45:07'
p347
sS'path'
p348
S'src/Passone/Passone/CPMemoCollectionViewManager.m'
p349
sS'condition'
p350
S'done'
p351
sa(dp352
g339
g340
sg341
S'Write code to stop removing a memo cell.'
p353
sg343
S'TODO grabbed from src/Passone/Passone/CPMemoCollectionViewManager.m, line 184.'
p354
sg345
I01
sg346
S'2013-08-04 16:45:07'
p355
sg348
g349
sg350
S'done'
p356
sa(dp357
S'author'
p358
S'TODO grabber'
p359
sS'text'
p360
S'Add animation for removing a memo cell.'
p361
sS'detail'
p362
S'TODO grabbed from src/Passone/Passone/CPMemoCollectionViewManager.m, line 225.'
p363
sS'exported'
p364
I01
sS'time'
p365
S'2013-08-05 18:38:59'
p366
sS'path'
p367
S'src/Passone/Passone/CPMemoCollectionViewManager.m'
p368
sS'condition'
p369
S'done'
p370
sa(dp371
S'author'
p372
S'TODO grabber'
p373
sS'text'
p374
S'Improve animation for removing a memo cell.'
p375
sS'detail'
p376
S'TODO grabbed from src/Passone/Passone/CPMemoCollectionViewManager.m, line 238.'
p377
sS'exported'
p378
I00
sS'time'
p379
S'2013-08-09 18:29:39'
p380
sS'path'
p381
S'src/Passone/Passone/CPMemoCollectionViewManager.m'
p382
sS'condition'
p383
g97
sa(dp384
S'author'
p385
S'TODO grabber'
p386
sS'text'
p387
S'Adjust font of label in main password input view.'
p388
sS'detail'
p389
S'TODO grabbed from src/Passone/Passone/CPMainPasswordManager.m, line 157.'
p390
sS'exported'
p391
I00
sS'time'
p392
S'2013-08-16 18:02:14'
p393
sS'path'
p394
S'src/Passone/Passone/CPMainPasswordManager.m'
p395
sS'condition'
p396
g97
sa(dp397
g385
g386
sg387
S'Add a button in main password input view.'
p398
sg389
S'TODO grabbed from src/Passone/Passone/CPMainPasswordManager.m, line 191.'
p399
sg391
I01
sg392
S'2013-08-16 18:02:14'
p400
sg394
g395
sg396
S'done'
p401
sa(dp402
S'author'
p403
S'TODO grabber'
p404
sS'text'
p405
S'Determine if the memo cell should fall back to original position when you start removing after it is raised up when editing.'
p406
sS'detail'
p407
S'TODO grabbed from src/Passone/Passone/CPMemoCollectionViewManager.m, line 175.'
p408
sS'exported'
p409
I00
sS'time'
p410
S'2013-08-19 18:20:21'
p411
sS'path'
p412
S'src/Passone/Passone/CPMemoCollectionViewManager.m'
p413
sS'condition'
p414
g97
saNa(dp415
S'author'
p416
S'TODO grabber'
p417
sS'text'
p418
S'When removing pass cell, use images instead of single-colored views.'
p419
sS'detail'
p420
S'TODO grabbed from src/Passone/Passone/CPPassCell.m, line 159.'
p421
sS'exported'
p422
I00
sS'time'
p423
S'2013-08-19 18:36:37'
p424
sS'path'
p425
S'src/Passone/Passone/CPPassCell.m'
p426
sS'condition'
p427
g97
sa(dp428
S'author'
p429
S'TODO grabber'
p430
sS'text'
p431
S'Adjust appearance of notification labels.'
p432
sS'detail'
p433
S'TODO grabbed from src/Passone/Passone/CPNotificationCenter.m, line 105.'
p434
sS'exported'
p435
I00
sS'time'
p436
S'2013-08-20 17:17:18'
p437
sS'path'
p438
S'src/Passone/Passone/CPNotificationCenter.m'
p439
sS'condition'
p440
g97
sa(dp441
S'author'
p442
S'TODO grabber'
p443
sS'text'
p444
S'Not let keyboard hide the notifications.'
p445
sS'detail'
p446
S'TODO grabbed from src/Passone/Passone/CPNotificationCenter.m, line 61.'
p447
sS'exported'
p448
I01
sS'time'
p449
S'2013-08-20 17:41:38'
p450
sS'path'
p451
S'src/Passone/Passone/CPNotificationCenter.m'
p452
sS'condition'
p453
S'done'
p454
sa(dp455
S'author'
p456
S'TODO grabber'
p457
sS'text'
p458
S'Determine if the keyboard is splited or not when resize notification come to memo collection view manager.'
p459
sS'detail'
p460
S'TODO grabbed from src/Passone/Passone/CPMemoCollectionViewManager.m, line 274.'
p461
sS'exported'
p462
I01
sS'time'
p463
S'2013-08-20 17:57:41'
p464
sS'path'
p465
S'src/Passone/Passone/CPMemoCollectionViewManager.m'
p466
sS'condition'
p467
S'done'
p468
sa(dp469
g456
g457
sg458
S'Determine if the keyboard is splited or not when resize notification come to notification center.'
p470
sg460
S'TODO grabbed from src/Passone/Passone/CPNotificationCenter.m, line 66.'
p471
sg462
I01
sg463
S'2013-08-20 17:57:41'
p472
sg465
S'src/Passone/Passone/CPNotificationCenter.m'
p473
sg467
g468
sa(dp474
g456
g457
sg458
S"Not change notification labels' position if keyboard hide and then show immediately."
p475
sg460
S'TODO grabbed from src/Passone/Passone/CPNotificationCenter.m, line 89.'
p476
sg462
I00
sg463
S'2013-08-20 17:57:41'
p477
sg465
g473
sg467
g97
sa(dp478
S'author'
p479
S'TODO grabber'
p480
sS'text'
p481
S'Figure out why editing cell will not rise if starting edit cell just after search bar.'
p482
sS'detail'
p483
S'TODO grabbed from src/Passone/Passone/CPMemoCollectionViewManager.m, line 277.'
p484
sS'exported'
p485
I00
sS'time'
p486
S'2013-08-20 18:41:30'
p487
sS'path'
p488
S'src/Passone/Passone/CPMemoCollectionViewManager.m'
p489
sS'condition'
p490
g97
sa(dp491
S'author'
p492
S'TODO grabber'
p493
sS'text'
p494
S"Use other advertisements when apple's iAd is not reachable."
p495
sS'detail'
p496
S'TODO grabbed from src/Passone/Passone/CPAdManager.m, line 64.'
p497
sS'exported'
p498
I00
sS'time'
p499
S'2013-08-22 17:57:56'
p500
sS'path'
p501
S'src/Passone/Passone/CPAdManager.m'
p502
sS'condition'
p503
g97
sa(dp504
S'author'
p505
S'TODO grabber'
p506
sS'text'
p507
S'BUG! When notifications come too fast, upper notifications will be removed without animation.'
p508
sS'detail'
p509
S'TODO grabbed from src/Passone/Passone/CPNotificationCenter.m, line 149.'
p510
sS'exported'
p511
I00
sS'time'
p512
S'2013-08-23 18:16:28'
p513
sS'path'
p514
S'src/Passone/Passone/CPNotificationCenter.m'
p515
sS'condition'
p516
g97
sa(dp517
S'author'
p518
S'TODO grabber'
p519
sS'text'
p520
S'Not copy to clipboard if password is not used.'
p521
sS'detail'
p522
S'TODO grabbed from src/Passone/Passone/CPPassCell.m, line 126.'
p523
sS'exported'
p524
I00
sS'time'
p525
S'2013-08-24 18:42:01'
p526
sS'path'
p527
S'src/Passone/Passone/CPPassCell.m'
p528
sS'condition'
p529
g97
sa(dp530
g518
g519
sg520
S'Stop it if being currently editing memo cells in pass edit view.'
p531
sg522
S'TODO grabbed from src/Passone/Passone/CPTopBarAndSearchManager.m, line 179.'
p532
sg524
I00
sg525
S'2013-08-24 18:42:01'
p533
sg527
S'src/Passone/Passone/CPTopBarAndSearchManager.m'
p534
sg529
g97
saNaNa(dp535
S'author'
p536
S'TODO grabber'
p537
sS'text'
p538
S'Make cover images bigger.'
p539
sS'detail'
p540
S'TODO grabbed from src/Passone/Passone/CPPassGridManager.m, line 107.'
p541
sS'exported'
p542
I00
sS'time'
p543
S'2013-08-26 17:58:01'
p544
sS'path'
p545
S'src/Passone/Passone/CPPassGridManager.m'
p546
sS'condition'
p547
g97
sa.