(lp0
(dp1
S'author'
p2
S'TODO grabber'
p3
sS'text'
p4
S'Add padding to notification labels, maybe also border radius.'
p5
sS'detail'
p6
S'TODO grabbed from /Users/wangsw/Workspace/ObjectC/Passone/src/Passone/Passone/CPNotificationCenter.m, line 70.'
p7
sS'exported'
p8
I01
sS'time'
p9
S'2013-06-29 18:42:26'
p10
sS'path'
p11
S'/Users/wangsw/Workspace/ObjectC/Passone/src/Passone/Passone/CPNotificationCenter.m'
p12
sS'condition'
p13
S'done'
p14
saNaNaNaNaNaNa(dp15
g2
g3
sg4
S'Show the password edit view with an animation of alpha from 0.0 to 1.0.'
p16
sg6
S'TODO grabbed from /Users/wangsw/Workspace/ObjectC/Passone/src/Passone/Passone/CPPassEditViewManager.m, line 74.'
p17
sg8
I01
sg9
S'2013-06-29 18:42:26'
p18
sg11
S'/Users/wangsw/Workspace/ObjectC/Passone/src/Passone/Passone/CPPassEditViewManager.m'
p19
sg13
S'done'
p20
sa(dp21
g2
g3
sg4
S'Remove password edit view with an animation of alpha from 0.0 to 1.0.'
p22
sg6
S'TODO grabbed from /Users/wangsw/Workspace/ObjectC/Passone/src/Passone/Passone/CPPassEditViewManager.m, line 120.'
p23
sg8
I01
sg9
S'2013-06-29 18:42:26'
p24
sg11
g19
sg13
g20
sa(dp25
g2
g3
sg4
S'(IN UNIT TEST) Use changable data to replace @"changed".'
p26
sg6
S'TODO grabbed from /Users/wangsw/Workspace/ObjectC/Passone/src/Passone/PassoneTests/CPPassDataManagerTests.m, line 47.'
p27
sg8
I00
sg9
S'2013-06-29 18:42:26'
p28
sg11
S'/Users/wangsw/Workspace/ObjectC/Passone/src/Passone/PassoneTests/CPPassDataManagerTests.m'
p29
sg13
S'remv'
p30
saNa(dp31
S'author'
p32
S'TODO grabber'
p33
sS'text'
p34
S'Change height of notification labels for longer text.'
p35
sS'detail'
p36
S'TODO grabbed from /Users/wangsw/Workspace/ObjectC/Passone/src/Passone/Passone/CPNotificationCenter.m, line 71.'
p37
sS'exported'
p38
I01
sS'time'
p39
S'2013-06-29 20:19:21'
p40
sS'path'
p41
S'/Users/wangsw/Workspace/ObjectC/Passone/src/Passone/Passone/CPNotificationCenter.m'
p42
sS'condition'
p43
g14
sa(dp44
S'author'
p45
S'TODO grabber'
p46
sS'text'
p47
S"Calculated notification label width doesn't fit the pass grid. 1px difference. Need change."
p48
sS'detail'
p49
S'TODO grabbed from /Users/wangsw/Workspace/ObjectC/Passone/src/Passone/Passone/CPNotificationCenter.m, line 54.'
p50
sS'exported'
p51
I01
sS'time'
p52
S'2013-06-30 08:57:28'
p53
sS'path'
p54
S'/Users/wangsw/Workspace/ObjectC/Passone/src/Passone/Passone/CPNotificationCenter.m'
p55
sS'condition'
p56
S'done'
p57
saNaNa(dp58
S'author'
p59
S'TODO grabber'
p60
sS'text'
p61
S'Adjust pass cell shadow.'
p62
sS'detail'
p63
S'TODO grabbed from /Users/codingpotato/Development/Passone/src/Passone/Passone/CPPassCell.m, line 27.'
p64
sS'exported'
p65
I00
sS'time'
p66
S'2013-07-02 13:21:38'
p67
sS'path'
p68
S'/Users/codingpotato/Development/Passone/src/Passone/Passone/CPPassCell.m'
p69
sS'condition'
p70
S'remv'
p71
saNaNaNaNaNaNaNaNa(dp72
S'author'
p73
S'TODO grabber'
p74
sS'text'
p75
S'Limit the number of notifications.'
p76
sS'detail'
p77
S'TODO grabbed from src/Passone/Passone/CPNotificationCenter.m, line 99.'
p78
sS'exported'
p79
I01
sS'time'
p80
S'2013-07-02 21:16:13'
p81
sS'path'
p82
S'src/Passone/Passone/CPNotificationCenter.m'
p83
sS'condition'
p84
S'done'
p85
sa(dp86
g73
g74
sg75
S'Determine how long a notification should stay on the screen.'
p87
sg77
S'TODO grabbed from src/Passone/Passone/CPNotificationCenter.m, line 14.'
p88
sg79
I00
sg80
S'2013-07-02 21:16:13'
p89
sg82
g83
sg84
S'open'
p90
sa(dp91
g73
g74
sg75
S'Now use long press to simulate two-finger swipe, change it later.'
p92
sg77
S'TODO grabbed from src/Passone/Passone/CPPassCell.m, line 57.'
p93
sg79
I00
sg80
S'2013-07-02 21:16:13'
p94
sg82
S'src/Passone/Passone/CPPassCell.m'
p95
sg84
S'remv'
p96
sa(dp97
g73
g74
sg75
S'The third and last two colors for cells are too similar, so they need to be changed.'
p98
sg77
S'TODO grabbed from src/Passone/Passone/CPPassDataManager.m, line 59.'
p99
sg79
I00
sg80
S'2013-07-02 21:16:13'
p100
sg82
S'src/Passone/Passone/CPPassDataManager.m'
p101
sg84
g90
sa(dp102
g73
g74
sg75
S'BUG! Cannot undo before setPasswordText.'
p103
sg77
S'TODO grabbed from src/Passone/Passone/CPPassDataManager.m, line 115.'
p104
sg79
I01
sg80
S'2013-07-02 21:16:13'
p105
sg82
g101
sg84
S'done'
p106
sa(dp107
g73
g74
sg75
S'MAY ABORT! Handle the error appropriately when saving context.'
p108
sg77
S'TODO grabbed from src/Passone/Passone/CPPassDataManager.m, line 179.'
p109
sg79
I00
sg80
S'2013-07-02 21:16:13'
p110
sg82
g101
sg84
g90
sa(dp111
g73
g74
sg75
S'MAY ABORT! Handle the error appropriately when initializing persistent store coordinator.'
p112
sg77
S'TODO grabbed from src/Passone/Passone/CPPassDataManager.m, line 216.'
p113
sg79
I00
sg80
S'2013-07-02 21:16:13'
p114
sg82
g101
sg84
g90
sa(dp115
g73
g74
sg75
S"When showing pass edit view, check 'password.isUsed'."
p116
sg77
S'TODO grabbed from src/Passone/Passone/CPPassEditViewManager.m, line 61.'
p117
sg79
I01
sg80
S'2013-07-02 21:16:13'
p118
sg82
S'src/Passone/Passone/CPPassEditViewManager.m'
p119
sg84
S'done'
p120
sa(dp121
g73
g74
sg75
S'When showing pass edit view, if the cell is unset, focus on the text field.'
p122
sg77
S'TODO grabbed from src/Passone/Passone/CPPassEditViewManager.m, line 72.'
p123
sg79
I01
sg80
S'2013-07-02 21:16:13'
p124
sg82
g119
sg84
S'done'
p125
sa(dp126
g73
g74
sg75
S'When showing pass edit view, if the cell has been set, hide the password for security.'
p127
sg77
S'TODO grabbed from src/Passone/Passone/CPPassEditViewManager.m, line 75.'
p128
sg79
I01
sg80
S'2013-07-02 21:16:13'
p129
sg82
g119
sg84
S'done'
p130
sa(dp131
S'author'
p132
S'TODO grabber'
p133
sS'text'
p134
S'When showing pass edit view, animate its background color if pass cell is gray.'
p135
sS'detail'
p136
S'TODO grabbed from src/Passone/Passone/CPPassEditViewManager.m, line 61.'
p137
sS'exported'
p138
I01
sS'time'
p139
S'2013-07-04 17:52:44'
p140
sS'path'
p141
S'src/Passone/Passone/CPPassEditViewManager.m'
p142
sS'condition'
p143
S'done'
p144
sa(dp145
S'author'
p146
S'TODO grabber'
p147
sS'text'
p148
S"Move 'backgroundColorOfPassword:' into CPPassword"
p149
sS'detail'
p150
S'TODO grabbed from src/Passone/Passone/CPPassGridManager.m, line 151.'
p151
sS'exported'
p152
I01
sS'time'
p153
S'2013-07-04 17:55:52'
p154
sS'path'
p155
S'src/Passone/Passone/CPPassGridManager.m'
p156
sS'condition'
p157
g144
sa(dp158
S'author'
p159
S'TODO grabber'
p160
sS'text'
p161
S'If password text is set to empty, mark it with not used.'
p162
sS'detail'
p163
S'TODO grabbed from src/Passone/Passone/CPPassDataManager.m, line 89.'
p164
sS'exported'
p165
I01
sS'time'
p166
S'2013-07-04 18:05:54'
p167
sS'path'
p168
S'src/Passone/Passone/CPPassDataManager.m'
p169
sS'condition'
p170
S'done'
p171
sa(dp172
S'author'
p173
S'TODO grabber'
p174
sS'text'
p175
S'When hiding pass edit view, animate its background color if pass cell is gray.'
p176
sS'detail'
p177
S'TODO grabbed from src/Passone/Passone/CPPassEditViewManager.m, line 135.'
p178
sS'exported'
p179
I01
sS'time'
p180
S'2013-07-04 18:07:51'
p181
sS'path'
p182
S'src/Passone/Passone/CPPassEditViewManager.m'
p183
sS'condition'
p184
S'done'
p185
sa(dp186
S'author'
p187
S'TODO grabber'
p188
sS'text'
p189
S'Tap once on pass cell to copy password. Tap twice to show pass edit view.'
p190
sS'detail'
p191
S'TODO grabbed from src/Passone/Passone/CPPassCell.m, line 44.'
p192
sS'exported'
p193
I01
sS'time'
p194
S'2013-07-04 18:32:57'
p195
sS'path'
p196
S'src/Passone/Passone/CPPassCell.m'
p197
sS'condition'
p198
S'done'
p199
sa(dp200
S'author'
p201
S'TODO grabber'
p202
sS'text'
p203
S'Show notification when removing a pass cell by setting an empty text.'
p204
sS'detail'
p205
S'TODO grabbed from src/Passone/Passone/CPPassDataManager.m, line 80.'
p206
sS'exported'
p207
I01
sS'time'
p208
S'2013-07-05 18:28:53'
p209
sS'path'
p210
S'src/Passone/Passone/CPPassDataManager.m'
p211
sS'condition'
p212
S'done'
p213
sa(dp214
S'author'
p215
S'TODO grabber'
p216
sS'text'
p217
S'Handling pass cell pan began, start removing animation.'
p218
sS'detail'
p219
S'TODO grabbed from src/Passone/Passone/CPPassCell.m, line 80.'
p220
sS'exported'
p221
I01
sS'time'
p222
S'2013-07-05 18:38:36'
p223
sS'path'
p224
S'src/Passone/Passone/CPPassCell.m'
p225
sS'condition'
p226
S'done'
p227
sa(dp228
g215
g216
sg217
S'Handling pass cell pan changed, record translation and animate.'
p229
sg219
S'TODO grabbed from src/Passone/Passone/CPPassCell.m, line 89.'
p230
sg221
I01
sg222
S'2013-07-05 18:38:36'
p231
sg224
g225
sg226
g227
sa(dp232
g215
g216
sg217
S'Handling pass cell pan ended, stop removing animation.'
p233
sg219
S'TODO grabbed from src/Passone/Passone/CPPassCell.m, line 134.'
p234
sg221
I01
sg222
S'2013-07-05 18:38:36'
p235
sg224
g225
sg226
S'done'
p236
sa(dp237
g215
g216
sg217
S'Handling pass cell pan ended, check if translation reach 50%.'
p238
sg219
S'TODO grabbed from src/Passone/Passone/CPPassCell.m, line 135.'
p239
sg221
I01
sg222
S'2013-07-05 18:38:36'
p240
sg224
g225
sg226
g236
sa(dp241
g215
g216
sg217
S'Handling pass cell pan ended, may directly access model instead of delegate.'
p242
sg219
S'TODO grabbed from src/Passone/Passone/CPPassCell.m, line 136.'
p243
sg221
I01
sg222
S'2013-07-05 18:38:36'
p244
sg224
g225
sg226
g236
sa(dp245
S'author'
p246
S'TODO grabber'
p247
sS'text'
p248
S"Handling pass cell pan changed, adding text 'Swipe/Release to remove'."
p249
sS'detail'
p250
S'TODO grabbed from src/Passone/Passone/CPPassCell.m, line 122.'
p251
sS'exported'
p252
I01
sS'time'
p253
S'2013-07-06 18:23:11'
p254
sS'path'
p255
S'src/Passone/Passone/CPPassCell.m'
p256
sS'condition'
p257
S'done'
p258
sa(dp259
g246
g247
sg248
S'Move creation of CPNotificationCenter to proper place.'
p260
sg250
S'TODO grabbed from src/Passone/Passone/CPPassGridManager.m, line 81.'
p261
sg252
I01
sg253
S'2013-07-06 18:23:11'
p262
sg255
S'src/Passone/Passone/CPPassGridManager.m'
p263
sg257
S'done'
p264
sa(dp265
S'author'
p266
S'TODO grabber'
p267
sS'text'
p268
S'Adjust font of pass cell removing label.'
p269
sS'detail'
p270
S'TODO grabbed from src/Passone/Passone/CPPassCell.m, line 122.'
p271
sS'exported'
p272
I00
sS'time'
p273
S'2013-07-06 21:10:14'
p274
sS'path'
p275
S'src/Passone/Passone/CPPassCell.m'
p276
sS'condition'
p277
g90
sa(dp278
S'author'
p279
S'TODO grabber'
p280
sS'text'
p281
S'Change behavior of pass cell removing view & label if cannot toggle remove state.'
p282
sS'detail'
p283
S'TODO grabbed from src/Passone/Passone/CPPassCell.m, line 179.'
p284
sS'exported'
p285
I00
sS'time'
p286
S'2013-07-06 21:28:07'
p287
sS'path'
p288
S'src/Passone/Passone/CPPassCell.m'
p289
sS'condition'
p290
g90
sa(dp291
S'author'
p292
S'TODO grabber'
p293
sS'text'
p294
S'Write code to start removing a memo cell.'
p295
sS'detail'
p296
S'TODO grabbed from src/Passone/Passone/CPSearchViewManager.m, line 248.'
p297
sS'exported'
p298
I01
sS'time'
p299
S'2013-07-17 18:37:03'
p300
sS'path'
p301
S'src/Passone/Passone/CPSearchViewManager.m'
p302
sS'condition'
p303
S'done'
p304
sa(dp305
g292
g293
sg294
S'Write code to continue removing a memo cell.'
p306
sg296
S'TODO grabbed from src/Passone/Passone/CPSearchViewManager.m, line 262.'
p307
sg298
I01
sg299
S'2013-07-17 18:37:03'
p308
sg301
g302
sg303
g304
sa(dp309
g292
g293
sg294
S'Write code to stop removing a memo cell.'
p310
sg296
S'TODO grabbed from src/Passone/Passone/CPSearchViewManager.m, line 299.'
p311
sg298
I00
sg299
S'2013-07-17 18:37:03'
p312
sg301
g302
sg303
S'remv'
p313
sa(dp314
S'author'
p315
S'TODO grabber'
p316
sS'text'
p317
S"When removing a memo cell, show 'Swipe/Release to remove'."
p318
sS'detail'
p319
S'TODO grabbed from src/Passone/Passone/CPSearchViewManager.m, line 286.'
p320
sS'exported'
p321
I00
sS'time'
p322
S'2013-07-18 18:40:19'
p323
sS'path'
p324
S'src/Passone/Passone/CPSearchViewManager.m'
p325
sS'condition'
p326
S'remv'
p327
sa(dp328
S'author'
p329
S'TODO grabber'
p330
sS'text'
p331
S'Set the return key type of text field in Pass Edit View to done.'
p332
sS'detail'
p333
S'TODO grabbed from src/Passone/Passone/CPPassEditViewManager.m, line 169.'
p334
sS'exported'
p335
I01
sS'time'
p336
S'2013-08-03 16:18:40'
p337
sS'path'
p338
S'src/Passone/Passone/CPPassEditViewManager.m'
p339
sS'condition'
p340
S'done'
p341
sa(dp342
S'author'
p343
S'TODO grabber'
p344
sS'text'
p345
S"When removing a memo cell, show 'Swipe/Release to remove'."
p346
sS'detail'
p347
S'TODO grabbed from src/Passone/Passone/CPMemoCollectionViewManager.m, line 172.'
p348
sS'exported'
p349
I01
sS'time'
p350
S'2013-08-04 16:45:07'
p351
sS'path'
p352
S'src/Passone/Passone/CPMemoCollectionViewManager.m'
p353
sS'condition'
p354
S'done'
p355
sa(dp356
g343
g344
sg345
S'Write code to stop removing a memo cell.'
p357
sg347
S'TODO grabbed from src/Passone/Passone/CPMemoCollectionViewManager.m, line 184.'
p358
sg349
I01
sg350
S'2013-08-04 16:45:07'
p359
sg352
g353
sg354
S'done'
p360
sa(dp361
S'author'
p362
S'TODO grabber'
p363
sS'text'
p364
S'Add animation for removing a memo cell.'
p365
sS'detail'
p366
S'TODO grabbed from src/Passone/Passone/CPMemoCollectionViewManager.m, line 225.'
p367
sS'exported'
p368
I01
sS'time'
p369
S'2013-08-05 18:38:59'
p370
sS'path'
p371
S'src/Passone/Passone/CPMemoCollectionViewManager.m'
p372
sS'condition'
p373
S'done'
p374
sa(dp375
S'author'
p376
S'TODO grabber'
p377
sS'text'
p378
S'Improve animation for removing a memo cell.'
p379
sS'detail'
p380
S'TODO grabbed from src/Passone/Passone/CPMemoCollectionViewManager.m, line 235.'
p381
sS'exported'
p382
I00
sS'time'
p383
S'2013-08-09 18:29:39'
p384
sS'path'
p385
S'src/Passone/Passone/CPMemoCollectionViewManager.m'
p386
sS'condition'
p387
g90
sa(dp388
S'author'
p389
S'TODO grabber'
p390
sS'text'
p391
S'Adjust font of label in main password input view.'
p392
sS'detail'
p393
S'TODO grabbed from src/Passone/Passone/CPMainPasswordManager.m, line 165.'
p394
sS'exported'
p395
I00
sS'time'
p396
S'2013-08-16 18:02:14'
p397
sS'path'
p398
S'src/Passone/Passone/CPMainPasswordManager.m'
p399
sS'condition'
p400
g90
sa(dp401
g389
g390
sg391
S'Add a button in main password input view.'
p402
sg393
S'TODO grabbed from src/Passone/Passone/CPMainPasswordManager.m, line 191.'
p403
sg395
I01
sg396
S'2013-08-16 18:02:14'
p404
sg398
g399
sg400
S'done'
p405
sa(dp406
S'author'
p407
S'TODO grabber'
p408
sS'text'
p409
S'Determine if the memo cell should fall back to original position when you start removing after it is raised up when editing.'
p410
sS'detail'
p411
S'TODO grabbed from src/Passone/Passone/CPMemoCollectionViewManager.m, line 172.'
p412
sS'exported'
p413
I00
sS'time'
p414
S'2013-08-19 18:20:21'
p415
sS'path'
p416
S'src/Passone/Passone/CPMemoCollectionViewManager.m'
p417
sS'condition'
p418
g90
sa(dp419
S'author'
p420
S'TODO grabber'
p421
sS'text'
p422
S'Stop it if being currently editing memo cells in pass edit view.'
p423
sS'detail'
p424
S'TODO grabbed from src/Passone/Passone/CPSearchViewManager.m, line 188.'
p425
sS'exported'
p426
I00
sS'time'
p427
S'2013-08-19 18:28:49'
p428
sS'path'
p429
S'src/Passone/Passone/CPSearchViewManager.m'
p430
sS'condition'
p431
g90
sa(dp432
S'author'
p433
S'TODO grabber'
p434
sS'text'
p435
S'When removing pass cell, use images instead of single-colored views.'
p436
sS'detail'
p437
S'TODO grabbed from src/Passone/Passone/CPPassCell.m, line 105.'
p438
sS'exported'
p439
I00
sS'time'
p440
S'2013-08-19 18:36:37'
p441
sS'path'
p442
S'src/Passone/Passone/CPPassCell.m'
p443
sS'condition'
p444
g90
sa(dp445
S'author'
p446
S'TODO grabber'
p447
sS'text'
p448
S'Adjust appearance of notification labels.'
p449
sS'detail'
p450
S'TODO grabbed from src/Passone/Passone/CPNotificationCenter.m, line 107.'
p451
sS'exported'
p452
I00
sS'time'
p453
S'2013-08-20 17:17:18'
p454
sS'path'
p455
S'src/Passone/Passone/CPNotificationCenter.m'
p456
sS'condition'
p457
g90
sa(dp458
S'author'
p459
S'TODO grabber'
p460
sS'text'
p461
S'Not let keyboard hide the notifications.'
p462
sS'detail'
p463
S'TODO grabbed from src/Passone/Passone/CPNotificationCenter.m, line 61.'
p464
sS'exported'
p465
I01
sS'time'
p466
S'2013-08-20 17:41:38'
p467
sS'path'
p468
S'src/Passone/Passone/CPNotificationCenter.m'
p469
sS'condition'
p470
S'done'
p471
sa(dp472
S'author'
p473
S'TODO grabber'
p474
sS'text'
p475
S'Determine if the keyboard is splited or not when resize notification come to memo collection view manager.'
p476
sS'detail'
p477
S'TODO grabbed from src/Passone/Passone/CPMemoCollectionViewManager.m, line 274.'
p478
sS'exported'
p479
I01
sS'time'
p480
S'2013-08-20 17:57:41'
p481
sS'path'
p482
S'src/Passone/Passone/CPMemoCollectionViewManager.m'
p483
sS'condition'
p484
S'done'
p485
sa(dp486
g473
g474
sg475
S'Determine if the keyboard is splited or not when resize notification come to notification center.'
p487
sg477
S'TODO grabbed from src/Passone/Passone/CPNotificationCenter.m, line 66.'
p488
sg479
I01
sg480
S'2013-08-20 17:57:41'
p489
sg482
S'src/Passone/Passone/CPNotificationCenter.m'
p490
sg484
g485
sa(dp491
g473
g474
sg475
S"Not change notification labels' position if keyboard hide and then show immediately."
p492
sg477
S'TODO grabbed from src/Passone/Passone/CPNotificationCenter.m, line 91.'
p493
sg479
I00
sg480
S'2013-08-20 17:57:41'
p494
sg482
g490
sg484
g90
sa(dp495
S'author'
p496
S'TODO grabber'
p497
sS'text'
p498
S'Figure out why editing cell will not rise if starting edit cell just after search bar.'
p499
sS'detail'
p500
S'TODO grabbed from src/Passone/Passone/CPMemoCollectionViewManager.m, line 274.'
p501
sS'exported'
p502
I00
sS'time'
p503
S'2013-08-20 18:41:30'
p504
sS'path'
p505
S'src/Passone/Passone/CPMemoCollectionViewManager.m'
p506
sS'condition'
p507
g90
sa(dp508
S'author'
p509
S'TODO grabber'
p510
sS'text'
p511
S"Use other advertisements when apple's iAd is not reachable."
p512
sS'detail'
p513
S'TODO grabbed from src/Passone/Passone/CPAdManager.m, line 64.'
p514
sS'exported'
p515
I00
sS'time'
p516
S'2013-08-22 17:57:56'
p517
sS'path'
p518
S'src/Passone/Passone/CPAdManager.m'
p519
sS'condition'
p520
g90
sa(dp521
S'author'
p522
S'TODO grabber'
p523
sS'text'
p524
S'BUG! When notifications come too fast, upper notifications will be removed without animation.'
p525
sS'detail'
p526
S'TODO grabbed from src/Passone/Passone/CPNotificationCenter.m, line 151.'
p527
sS'exported'
p528
I00
sS'time'
p529
S'2013-08-23 18:16:28'
p530
sS'path'
p531
S'src/Passone/Passone/CPNotificationCenter.m'
p532
sS'condition'
p533
g90
sa.