(lp0
(dp1
S'author'
p2
S'TODO grabber'
p3
sS'text'
p4
S'Add padding to notification labels, maybe also border radius.'
p5
sS'detail'
p6
S'TODO grabbed from /Users/wangsw/Workspace/ObjectC/Passone/src/Passone/Passone/CPNotificationCenter.m, line 70.'
p7
sS'exported'
p8
I01
sS'time'
p9
S'2013-06-29 18:42:26'
p10
sS'path'
p11
S'/Users/wangsw/Workspace/ObjectC/Passone/src/Passone/Passone/CPNotificationCenter.m'
p12
sS'condition'
p13
S'done'
p14
saNaNaNaNaNaNa(dp15
g2
g3
sg4
S'Show the password edit view with an animation of alpha from 0.0 to 1.0.'
p16
sg6
S'TODO grabbed from /Users/wangsw/Workspace/ObjectC/Passone/src/Passone/Passone/CPPassEditViewManager.m, line 74.'
p17
sg8
I01
sg9
S'2013-06-29 18:42:26'
p18
sg11
S'/Users/wangsw/Workspace/ObjectC/Passone/src/Passone/Passone/CPPassEditViewManager.m'
p19
sg13
S'done'
p20
sa(dp21
g2
g3
sg4
S'Remove password edit view with an animation of alpha from 0.0 to 1.0.'
p22
sg6
S'TODO grabbed from /Users/wangsw/Workspace/ObjectC/Passone/src/Passone/Passone/CPPassEditViewManager.m, line 120.'
p23
sg8
I01
sg9
S'2013-06-29 18:42:26'
p24
sg11
g19
sg13
g20
sa(dp25
g2
g3
sg4
S'(IN UNIT TEST) Use changable data to replace @"changed".'
p26
sg6
S'TODO grabbed from /Users/wangsw/Workspace/ObjectC/Passone/src/Passone/PassoneTests/CPPassDataManagerTests.m, line 47.'
p27
sg8
I00
sg9
S'2013-06-29 18:42:26'
p28
sg11
S'/Users/wangsw/Workspace/ObjectC/Passone/src/Passone/PassoneTests/CPPassDataManagerTests.m'
p29
sg13
S'remv'
p30
saNa(dp31
S'author'
p32
S'TODO grabber'
p33
sS'text'
p34
S'Change height of notification labels for longer text.'
p35
sS'detail'
p36
S'TODO grabbed from /Users/wangsw/Workspace/ObjectC/Passone/src/Passone/Passone/CPNotificationCenter.m, line 71.'
p37
sS'exported'
p38
I01
sS'time'
p39
S'2013-06-29 20:19:21'
p40
sS'path'
p41
S'/Users/wangsw/Workspace/ObjectC/Passone/src/Passone/Passone/CPNotificationCenter.m'
p42
sS'condition'
p43
g14
sa(dp44
S'author'
p45
S'TODO grabber'
p46
sS'text'
p47
S"Calculated notification label width doesn't fit the pass grid. 1px difference. Need change."
p48
sS'detail'
p49
S'TODO grabbed from /Users/wangsw/Workspace/ObjectC/Passone/src/Passone/Passone/CPNotificationCenter.m, line 54.'
p50
sS'exported'
p51
I01
sS'time'
p52
S'2013-06-30 08:57:28'
p53
sS'path'
p54
S'/Users/wangsw/Workspace/ObjectC/Passone/src/Passone/Passone/CPNotificationCenter.m'
p55
sS'condition'
p56
S'done'
p57
saNaNa(dp58
S'author'
p59
S'TODO grabber'
p60
sS'text'
p61
S'Adjust pass cell shadow.'
p62
sS'detail'
p63
S'TODO grabbed from /Users/codingpotato/Development/Passone/src/Passone/Passone/CPPassCell.m, line 27.'
p64
sS'exported'
p65
I00
sS'time'
p66
S'2013-07-02 13:21:38'
p67
sS'path'
p68
S'/Users/codingpotato/Development/Passone/src/Passone/Passone/CPPassCell.m'
p69
sS'condition'
p70
S'remv'
p71
saNaNaNaNaNaNaNaNa(dp72
S'author'
p73
S'TODO grabber'
p74
sS'text'
p75
S'Limit the number of notifications.'
p76
sS'detail'
p77
S'TODO grabbed from src/Passone/Passone/CPNotificationCenter.m, line 99.'
p78
sS'exported'
p79
I01
sS'time'
p80
S'2013-07-02 21:16:13'
p81
sS'path'
p82
S'src/Passone/Passone/CPNotificationCenter.m'
p83
sS'condition'
p84
S'done'
p85
saNa(dp86
g73
g74
sg75
S'Now use long press to simulate two-finger swipe, change it later.'
p87
sg77
S'TODO grabbed from src/Passone/Passone/CPPassCell.m, line 57.'
p88
sg79
I00
sg80
S'2013-07-02 21:16:13'
p89
sg82
S'src/Passone/Passone/CPPassCell.m'
p90
sg84
S'remv'
p91
saNa(dp92
g73
g74
sg75
S'BUG! Cannot undo before setPasswordText.'
p93
sg77
S'TODO grabbed from src/Passone/Passone/CPPassDataManager.m, line 115.'
p94
sg79
I01
sg80
S'2013-07-02 21:16:13'
p95
sg82
S'src/Passone/Passone/CPPassDataManager.m'
p96
sg84
S'done'
p97
saNaNa(dp98
g73
g74
sg75
S"When showing pass edit view, check 'password.isUsed'."
p99
sg77
S'TODO grabbed from src/Passone/Passone/CPPassEditViewManager.m, line 61.'
p100
sg79
I01
sg80
S'2013-07-02 21:16:13'
p101
sg82
S'src/Passone/Passone/CPPassEditViewManager.m'
p102
sg84
S'done'
p103
sa(dp104
g73
g74
sg75
S'When showing pass edit view, if the cell is unset, focus on the text field.'
p105
sg77
S'TODO grabbed from src/Passone/Passone/CPPassEditViewManager.m, line 72.'
p106
sg79
I01
sg80
S'2013-07-02 21:16:13'
p107
sg82
g102
sg84
S'done'
p108
sa(dp109
g73
g74
sg75
S'When showing pass edit view, if the cell has been set, hide the password for security.'
p110
sg77
S'TODO grabbed from src/Passone/Passone/CPPassEditViewManager.m, line 75.'
p111
sg79
I01
sg80
S'2013-07-02 21:16:13'
p112
sg82
g102
sg84
S'done'
p113
sa(dp114
S'author'
p115
S'TODO grabber'
p116
sS'text'
p117
S'When showing pass edit view, animate its background color if pass cell is gray.'
p118
sS'detail'
p119
S'TODO grabbed from src/Passone/Passone/CPPassEditViewManager.m, line 61.'
p120
sS'exported'
p121
I01
sS'time'
p122
S'2013-07-04 17:52:44'
p123
sS'path'
p124
S'src/Passone/Passone/CPPassEditViewManager.m'
p125
sS'condition'
p126
S'done'
p127
sa(dp128
S'author'
p129
S'TODO grabber'
p130
sS'text'
p131
S"Move 'backgroundColorOfPassword:' into CPPassword"
p132
sS'detail'
p133
S'TODO grabbed from src/Passone/Passone/CPPassGridManager.m, line 151.'
p134
sS'exported'
p135
I01
sS'time'
p136
S'2013-07-04 17:55:52'
p137
sS'path'
p138
S'src/Passone/Passone/CPPassGridManager.m'
p139
sS'condition'
p140
g127
sa(dp141
S'author'
p142
S'TODO grabber'
p143
sS'text'
p144
S'If password text is set to empty, mark it with not used.'
p145
sS'detail'
p146
S'TODO grabbed from src/Passone/Passone/CPPassDataManager.m, line 89.'
p147
sS'exported'
p148
I01
sS'time'
p149
S'2013-07-04 18:05:54'
p150
sS'path'
p151
S'src/Passone/Passone/CPPassDataManager.m'
p152
sS'condition'
p153
S'done'
p154
sa(dp155
S'author'
p156
S'TODO grabber'
p157
sS'text'
p158
S'When hiding pass edit view, animate its background color if pass cell is gray.'
p159
sS'detail'
p160
S'TODO grabbed from src/Passone/Passone/CPPassEditViewManager.m, line 135.'
p161
sS'exported'
p162
I01
sS'time'
p163
S'2013-07-04 18:07:51'
p164
sS'path'
p165
S'src/Passone/Passone/CPPassEditViewManager.m'
p166
sS'condition'
p167
S'done'
p168
sa(dp169
S'author'
p170
S'TODO grabber'
p171
sS'text'
p172
S'Tap once on pass cell to copy password. Tap twice to show pass edit view.'
p173
sS'detail'
p174
S'TODO grabbed from src/Passone/Passone/CPPassCell.m, line 44.'
p175
sS'exported'
p176
I01
sS'time'
p177
S'2013-07-04 18:32:57'
p178
sS'path'
p179
S'src/Passone/Passone/CPPassCell.m'
p180
sS'condition'
p181
S'done'
p182
sa(dp183
S'author'
p184
S'TODO grabber'
p185
sS'text'
p186
S'Show notification when removing a pass cell by setting an empty text.'
p187
sS'detail'
p188
S'TODO grabbed from src/Passone/Passone/CPPassDataManager.m, line 80.'
p189
sS'exported'
p190
I01
sS'time'
p191
S'2013-07-05 18:28:53'
p192
sS'path'
p193
S'src/Passone/Passone/CPPassDataManager.m'
p194
sS'condition'
p195
S'done'
p196
sa(dp197
S'author'
p198
S'TODO grabber'
p199
sS'text'
p200
S'Handling pass cell pan began, start removing animation.'
p201
sS'detail'
p202
S'TODO grabbed from src/Passone/Passone/CPPassCell.m, line 80.'
p203
sS'exported'
p204
I01
sS'time'
p205
S'2013-07-05 18:38:36'
p206
sS'path'
p207
S'src/Passone/Passone/CPPassCell.m'
p208
sS'condition'
p209
S'done'
p210
sa(dp211
g198
g199
sg200
S'Handling pass cell pan changed, record translation and animate.'
p212
sg202
S'TODO grabbed from src/Passone/Passone/CPPassCell.m, line 89.'
p213
sg204
I01
sg205
S'2013-07-05 18:38:36'
p214
sg207
g208
sg209
g210
sa(dp215
g198
g199
sg200
S'Handling pass cell pan ended, stop removing animation.'
p216
sg202
S'TODO grabbed from src/Passone/Passone/CPPassCell.m, line 134.'
p217
sg204
I01
sg205
S'2013-07-05 18:38:36'
p218
sg207
g208
sg209
S'done'
p219
sa(dp220
g198
g199
sg200
S'Handling pass cell pan ended, check if translation reach 50%.'
p221
sg202
S'TODO grabbed from src/Passone/Passone/CPPassCell.m, line 135.'
p222
sg204
I01
sg205
S'2013-07-05 18:38:36'
p223
sg207
g208
sg209
g219
sa(dp224
g198
g199
sg200
S'Handling pass cell pan ended, may directly access model instead of delegate.'
p225
sg202
S'TODO grabbed from src/Passone/Passone/CPPassCell.m, line 136.'
p226
sg204
I01
sg205
S'2013-07-05 18:38:36'
p227
sg207
g208
sg209
g219
sa(dp228
S'author'
p229
S'TODO grabber'
p230
sS'text'
p231
S"Handling pass cell pan changed, adding text 'Swipe/Release to remove'."
p232
sS'detail'
p233
S'TODO grabbed from src/Passone/Passone/CPPassCell.m, line 122.'
p234
sS'exported'
p235
I01
sS'time'
p236
S'2013-07-06 18:23:11'
p237
sS'path'
p238
S'src/Passone/Passone/CPPassCell.m'
p239
sS'condition'
p240
S'done'
p241
sa(dp242
g229
g230
sg231
S'Move creation of CPNotificationCenter to proper place.'
p243
sg233
S'TODO grabbed from src/Passone/Passone/CPPassGridManager.m, line 81.'
p244
sg235
I01
sg236
S'2013-07-06 18:23:11'
p245
sg238
S'src/Passone/Passone/CPPassGridManager.m'
p246
sg240
S'done'
p247
saNaNaNa(dp248
S'author'
p249
S'TODO grabber'
p250
sS'text'
p251
S'Write code to continue removing a memo cell.'
p252
sS'detail'
p253
S'TODO grabbed from src/Passone/Passone/CPSearchViewManager.m, line 262.'
p254
sS'exported'
p255
I01
sS'time'
p256
S'2013-07-17 18:37:03'
p257
sS'path'
p258
S'src/Passone/Passone/CPSearchViewManager.m'
p259
sS'condition'
p260
S'done'
p261
sa(dp262
g249
g250
sg251
S'Write code to stop removing a memo cell.'
p263
sg253
S'TODO grabbed from src/Passone/Passone/CPSearchViewManager.m, line 299.'
p264
sg255
I00
sg256
S'2013-07-17 18:37:03'
p265
sg258
g259
sg260
S'remv'
p266
sa(dp267
S'author'
p268
S'TODO grabber'
p269
sS'text'
p270
S"When removing a memo cell, show 'Swipe/Release to remove'."
p271
sS'detail'
p272
S'TODO grabbed from src/Passone/Passone/CPSearchViewManager.m, line 286.'
p273
sS'exported'
p274
I00
sS'time'
p275
S'2013-07-18 18:40:19'
p276
sS'path'
p277
S'src/Passone/Passone/CPSearchViewManager.m'
p278
sS'condition'
p279
S'remv'
p280
sa(dp281
S'author'
p282
S'TODO grabber'
p283
sS'text'
p284
S'Set the return key type of text field in Pass Edit View to done.'
p285
sS'detail'
p286
S'TODO grabbed from src/Passone/Passone/CPPassEditViewManager.m, line 169.'
p287
sS'exported'
p288
I01
sS'time'
p289
S'2013-08-03 16:18:40'
p290
sS'path'
p291
S'src/Passone/Passone/CPPassEditViewManager.m'
p292
sS'condition'
p293
S'done'
p294
sa(dp295
S'author'
p296
S'TODO grabber'
p297
sS'text'
p298
S"When removing a memo cell, show 'Swipe/Release to remove'."
p299
sS'detail'
p300
S'TODO grabbed from src/Passone/Passone/CPMemoCollectionViewManager.m, line 172.'
p301
sS'exported'
p302
I01
sS'time'
p303
S'2013-08-04 16:45:07'
p304
sS'path'
p305
S'src/Passone/Passone/CPMemoCollectionViewManager.m'
p306
sS'condition'
p307
S'done'
p308
sa(dp309
g296
g297
sg298
S'Write code to stop removing a memo cell.'
p310
sg300
S'TODO grabbed from src/Passone/Passone/CPMemoCollectionViewManager.m, line 184.'
p311
sg302
I01
sg303
S'2013-08-04 16:45:07'
p312
sg305
g306
sg307
S'done'
p313
sa(dp314
S'author'
p315
S'TODO grabber'
p316
sS'text'
p317
S'Add animation for removing a memo cell.'
p318
sS'detail'
p319
S'TODO grabbed from src/Passone/Passone/CPMemoCollectionViewManager.m, line 225.'
p320
sS'exported'
p321
I01
sS'time'
p322
S'2013-08-05 18:38:59'
p323
sS'path'
p324
S'src/Passone/Passone/CPMemoCollectionViewManager.m'
p325
sS'condition'
p326
S'done'
p327
saNaNa(dp328
S'author'
p329
S'TODO grabber'
p330
sS'text'
p331
S'Add a button in main password input view.'
p332
sS'detail'
p333
S'TODO grabbed from src/Passone/Passone/CPMainPasswordManager.m, line 191.'
p334
sS'exported'
p335
I01
sS'time'
p336
S'2013-08-16 18:02:14'
p337
sS'path'
p338
S'src/Passone/Passone/CPMainPasswordManager.m'
p339
sS'condition'
p340
S'done'
p341
saNaNaNa(dp342
S'author'
p343
S'TODO grabber'
p344
sS'text'
p345
S'Adjust appearance of notification labels.'
p346
sS'detail'
p347
S'TODO grabbed from src/Passone/Passone/CPNotificationCenter.m, line 105.'
p348
sS'exported'
p349
I01
sS'time'
p350
S'2013-08-20 17:17:18'
p351
sS'path'
p352
S'src/Passone/Passone/CPNotificationCenter.m'
p353
sS'condition'
p354
S'done'
p355
sa(dp356
S'author'
p357
S'TODO grabber'
p358
sS'text'
p359
S'Not let keyboard hide the notifications.'
p360
sS'detail'
p361
S'TODO grabbed from src/Passone/Passone/CPNotificationCenter.m, line 61.'
p362
sS'exported'
p363
I01
sS'time'
p364
S'2013-08-20 17:41:38'
p365
sS'path'
p366
S'src/Passone/Passone/CPNotificationCenter.m'
p367
sS'condition'
p368
S'done'
p369
sa(dp370
S'author'
p371
S'TODO grabber'
p372
sS'text'
p373
S'Determine if the keyboard is splited or not when resize notification come to memo collection view manager.'
p374
sS'detail'
p375
S'TODO grabbed from src/Passone/Passone/CPMemoCollectionViewManager.m, line 274.'
p376
sS'exported'
p377
I01
sS'time'
p378
S'2013-08-20 17:57:41'
p379
sS'path'
p380
S'src/Passone/Passone/CPMemoCollectionViewManager.m'
p381
sS'condition'
p382
S'done'
p383
sa(dp384
g371
g372
sg373
S'Determine if the keyboard is splited or not when resize notification come to notification center.'
p385
sg375
S'TODO grabbed from src/Passone/Passone/CPNotificationCenter.m, line 66.'
p386
sg377
I01
sg378
S'2013-08-20 17:57:41'
p387
sg380
S'src/Passone/Passone/CPNotificationCenter.m'
p388
sg382
g383
saNaNaNa(dp389
S'author'
p390
S'TODO grabber'
p391
sS'text'
p392
S'BUG! When notifications come too fast, upper notifications will be removed without animation.'
p393
sS'detail'
p394
S'TODO grabbed from src/Passone/Passone/CPNotificationCenter.m, line 149.'
p395
sS'exported'
p396
I01
sS'time'
p397
S'2013-08-23 18:16:28'
p398
sS'path'
p399
S'src/Passone/Passone/CPNotificationCenter.m'
p400
sS'condition'
p401
g355
saNaNaNaNaNa(dp402
S'author'
p403
S'TODO grabber'
p404
sS'text'
p405
S'Add animation to exchange pass cells.'
p406
sS'detail'
p407
S'TODO grabbed from src/Passone/Passone/CPPassGridManager.m, line 285.'
p408
sS'exported'
p409
I01
sS'time'
p410
S'2013-08-28 17:52:36'
p411
sS'path'
p412
S'src/Passone/Passone/CPPassGridManager.m'
p413
sS'condition'
p414
S'done'
p415
saNaNaNaNaNaNa(dp416
S'author'
p417
S'TODO grabber'
p418
sS'text'
p419
S"Use other advertisements when apple's iAd is not reachable."
p420
sS'detail'
p421
S'TODO grabbed from src/Locor/Locor/CPAdManager.m, line 51.'
p422
sS'exported'
p423
I00
sS'time'
p424
S'2013-09-05 20:16:51'
p425
sS'path'
p426
S'src/Locor/Locor/CPAdManager.m'
p427
sS'condition'
p428
S'open'
p429
sa(dp430
g417
g418
sg419
S'Adjust font of label in main password input view.'
p431
sg421
S'TODO grabbed from src/Locor/Locor/CPMainPasswordManager.m, line 154.'
p432
sg423
I00
sg424
S'2013-09-05 20:16:51'
p433
sg426
S'src/Locor/Locor/CPMainPasswordManager.m'
p434
sg428
g429
sa(dp435
g417
g418
sg419
S'Determine if the memo cell should fall back to original position when you start removing after it is raised up when editing.'
p436
sg421
S'TODO grabbed from src/Locor/Locor/CPMemoCollectionViewManager.m, line 211.'
p437
sg423
I00
sg424
S'2013-09-05 20:16:51'
p438
sg426
S'src/Locor/Locor/CPMemoCollectionViewManager.m'
p439
sg428
g429
sa(dp440
g417
g418
sg419
S'Improve animation for removing a memo cell.'
p441
sg421
S'TODO grabbed from src/Locor/Locor/CPMemoCollectionViewManager.m, line 269.'
p442
sg423
I00
sg424
S'2013-09-05 20:16:51'
p443
sg426
g439
sg428
g429
sa(dp444
g417
g418
sg419
S'Figure out why editing cell will not rise if starting edit cell just after search bar.'
p445
sg421
S'TODO grabbed from src/Locor/Locor/CPMemoCollectionViewManager.m, line 313.'
p446
sg423
I00
sg424
S'2013-09-05 20:16:51'
p447
sg426
g439
sg428
g429
sa(dp448
g417
g418
sg419
S"Not change notification labels' position if keyboard hide and then show immediately."
p449
sg421
S'TODO grabbed from src/Locor/Locor/CPNotificationCenter.m, line 75.'
p450
sg423
I00
sg424
S'2013-09-05 20:16:51'
p451
sg426
S'src/Locor/Locor/CPNotificationCenter.m'
p452
sg428
g429
sa(dp453
g417
g418
sg419
S'Not copy to clipboard if password is not used.'
p454
sg421
S'TODO grabbed from src/Locor/Locor/CPPassCell.m, line 125.'
p455
sg423
I00
sg424
S'2013-09-05 20:16:51'
p456
sg426
S'src/Locor/Locor/CPPassCell.m'
p457
sg428
g429
sa(dp458
g417
g418
sg419
S'When removing pass cell, use images instead of single-colored views.'
p459
sg421
S'TODO grabbed from src/Locor/Locor/CPPassCell.m, line 158.'
p460
sg423
I00
sg424
S'2013-09-05 20:16:51'
p461
sg426
g457
sg428
g429
sa(dp462
g417
g418
sg419
S'Adjust font of pass cell removing label.'
p463
sg421
S'TODO grabbed from src/Locor/Locor/CPPassCell.m, line 193.'
p464
sg423
I00
sg424
S'2013-09-05 20:16:51'
p465
sg426
g457
sg428
g429
sa(dp466
g417
g418
sg419
S'Change behavior of pass cell removing view & label if cannot toggle remove state.'
p467
sg421
S'TODO grabbed from src/Locor/Locor/CPPassCell.m, line 281.'
p468
sg423
I00
sg424
S'2013-09-05 20:16:51'
p469
sg426
g457
sg428
g429
sa(dp470
g417
g418
sg419
S'The third and last two colors for cells are too similar, so they need to be changed.'
p471
sg421
S'TODO grabbed from src/Locor/Locor/CPPassDataManager.m, line 63.'
p472
sg423
I00
sg424
S'2013-09-05 20:16:51'
p473
sg426
S'src/Locor/Locor/CPPassDataManager.m'
p474
sg428
g429
sa(dp475
g417
g418
sg419
S'MAY ABORT! Handle the error appropriately when saving context.'
p476
sg421
S'TODO grabbed from src/Locor/Locor/CPPassDataManager.m, line 181.'
p477
sg423
I00
sg424
S'2013-09-05 20:16:51'
p478
sg426
g474
sg428
g429
sa(dp479
g417
g418
sg419
S'MAY ABORT! Handle the error appropriately when initializing persistent store coordinator.'
p480
sg421
S'TODO grabbed from src/Locor/Locor/CPPassDataManager.m, line 218.'
p481
sg423
I00
sg424
S'2013-09-05 20:16:51'
p482
sg426
g474
sg428
g429
sa(dp483
g417
g418
sg419
S'Make cover images bigger.'
p484
sg421
S'TODO grabbed from src/Locor/Locor/CPPassGridManager.m, line 134.'
p485
sg423
I00
sg424
S'2013-09-05 20:16:51'
p486
sg426
S'src/Locor/Locor/CPPassGridManager.m'
p487
sg428
g429
sa(dp488
g417
g418
sg419
S'When search bar is focused, stop if being currently editing memo cells in pass edit view.'
p489
sg421
S'TODO grabbed from src/Locor/Locor/CPTopBarAndSearchManager.m, line 196.'
p490
sg423
I01
sg424
S'2013-09-05 20:16:51'
p491
sg426
S'src/Locor/Locor/CPTopBarAndSearchManager.m'
p492
sg428
S'done'
p493
sa(dp494
S'author'
p495
S'TODO grabber'
p496
sS'text'
p497
S'When search bar is focused, stop if being currently editing memo cells in pass edit view.'
p498
sS'detail'
p499
S'TODO grabbed from src/Locor/Locor/CPTopBarManager.m, line 109.'
p500
sS'exported'
p501
I00
sS'time'
p502
S'2013-09-08 18:47:13'
p503
sS'path'
p504
S'src/Locor/Locor/CPTopBarManager.m'
p505
sS'condition'
p506
g429
sa.