(lp0
(dp1
S'author'
p2
S'TODO grabber'
p3
sS'text'
p4
S'Add padding to notification labels, maybe also border radius.'
p5
sS'detail'
p6
S'TODO grabbed from /Users/wangsw/Workspace/ObjectC/Passone/src/Passone/Passone/CPNotificationCenter.m, line 70.'
p7
sS'exported'
p8
I01
sS'time'
p9
S'2013-06-29 18:42:26'
p10
sS'path'
p11
S'/Users/wangsw/Workspace/ObjectC/Passone/src/Passone/Passone/CPNotificationCenter.m'
p12
sS'condition'
p13
S'done'
p14
saNaNaNaNaNaNa(dp15
g2
g3
sg4
S'Show the password edit view with an animation of alpha from 0.0 to 1.0.'
p16
sg6
S'TODO grabbed from /Users/wangsw/Workspace/ObjectC/Passone/src/Passone/Passone/CPPassEditViewManager.m, line 74.'
p17
sg8
I01
sg9
S'2013-06-29 18:42:26'
p18
sg11
S'/Users/wangsw/Workspace/ObjectC/Passone/src/Passone/Passone/CPPassEditViewManager.m'
p19
sg13
S'done'
p20
sa(dp21
g2
g3
sg4
S'Remove password edit view with an animation of alpha from 0.0 to 1.0.'
p22
sg6
S'TODO grabbed from /Users/wangsw/Workspace/ObjectC/Passone/src/Passone/Passone/CPPassEditViewManager.m, line 120.'
p23
sg8
I01
sg9
S'2013-06-29 18:42:26'
p24
sg11
g19
sg13
g20
sa(dp25
g2
g3
sg4
S'(IN UNIT TEST) Use changable data to replace @"changed".'
p26
sg6
S'TODO grabbed from /Users/wangsw/Workspace/ObjectC/Passone/src/Passone/PassoneTests/CPPassDataManagerTests.m, line 47.'
p27
sg8
I00
sg9
S'2013-06-29 18:42:26'
p28
sg11
S'/Users/wangsw/Workspace/ObjectC/Passone/src/Passone/PassoneTests/CPPassDataManagerTests.m'
p29
sg13
S'remv'
p30
saNa(dp31
S'author'
p32
S'TODO grabber'
p33
sS'text'
p34
S'Change height of notification labels for longer text.'
p35
sS'detail'
p36
S'TODO grabbed from /Users/wangsw/Workspace/ObjectC/Passone/src/Passone/Passone/CPNotificationCenter.m, line 71.'
p37
sS'exported'
p38
I01
sS'time'
p39
S'2013-06-29 20:19:21'
p40
sS'path'
p41
S'/Users/wangsw/Workspace/ObjectC/Passone/src/Passone/Passone/CPNotificationCenter.m'
p42
sS'condition'
p43
g14
sa(dp44
S'author'
p45
S'TODO grabber'
p46
sS'text'
p47
S"Calculated notification label width doesn't fit the pass grid. 1px difference. Need change."
p48
sS'detail'
p49
S'TODO grabbed from /Users/wangsw/Workspace/ObjectC/Passone/src/Passone/Passone/CPNotificationCenter.m, line 54.'
p50
sS'exported'
p51
I01
sS'time'
p52
S'2013-06-30 08:57:28'
p53
sS'path'
p54
S'/Users/wangsw/Workspace/ObjectC/Passone/src/Passone/Passone/CPNotificationCenter.m'
p55
sS'condition'
p56
S'done'
p57
saNaNa(dp58
S'author'
p59
S'TODO grabber'
p60
sS'text'
p61
S'Adjust pass cell shadow.'
p62
sS'detail'
p63
S'TODO grabbed from /Users/codingpotato/Development/Passone/src/Passone/Passone/CPPassCell.m, line 27.'
p64
sS'exported'
p65
I00
sS'time'
p66
S'2013-07-02 13:21:38'
p67
sS'path'
p68
S'/Users/codingpotato/Development/Passone/src/Passone/Passone/CPPassCell.m'
p69
sS'condition'
p70
S'remv'
p71
saNaNaNaNaNaNaNaNa(dp72
S'author'
p73
S'TODO grabber'
p74
sS'text'
p75
S'Limit the number of notifications.'
p76
sS'detail'
p77
S'TODO grabbed from src/Passone/Passone/CPNotificationCenter.m, line 59.'
p78
sS'exported'
p79
I00
sS'time'
p80
S'2013-07-02 21:16:13'
p81
sS'path'
p82
S'src/Passone/Passone/CPNotificationCenter.m'
p83
sS'condition'
p84
S'open'
p85
sa(dp86
g73
g74
sg75
S'Determine how long a notification should stay on the screen.'
p87
sg77
S'TODO grabbed from src/Passone/Passone/CPNotificationCenter.m, line 110.'
p88
sg79
I00
sg80
S'2013-07-02 21:16:13'
p89
sg82
g83
sg84
g85
sa(dp90
g73
g74
sg75
S'Now use long press to simulate two-finger swipe, change it later.'
p91
sg77
S'TODO grabbed from src/Passone/Passone/CPPassCell.m, line 57.'
p92
sg79
I00
sg80
S'2013-07-02 21:16:13'
p93
sg82
S'src/Passone/Passone/CPPassCell.m'
p94
sg84
S'remv'
p95
sa(dp96
g73
g74
sg75
S'The third and last two colors for cells are too similar, so they need to be changed.'
p97
sg77
S'TODO grabbed from src/Passone/Passone/CPPassDataManager.m, line 59.'
p98
sg79
I00
sg80
S'2013-07-02 21:16:13'
p99
sg82
S'src/Passone/Passone/CPPassDataManager.m'
p100
sg84
g85
sa(dp101
g73
g74
sg75
S'BUG! Cannot undo before setPasswordText.'
p102
sg77
S'TODO grabbed from src/Passone/Passone/CPPassDataManager.m, line 115.'
p103
sg79
I01
sg80
S'2013-07-02 21:16:13'
p104
sg82
g100
sg84
S'done'
p105
sa(dp106
g73
g74
sg75
S'MAY ABORT! Handle the error appropriately when saving context.'
p107
sg77
S'TODO grabbed from src/Passone/Passone/CPPassDataManager.m, line 179.'
p108
sg79
I00
sg80
S'2013-07-02 21:16:13'
p109
sg82
g100
sg84
g85
sa(dp110
g73
g74
sg75
S'MAY ABORT! Handle the error appropriately when initializing persistent store coordinator.'
p111
sg77
S'TODO grabbed from src/Passone/Passone/CPPassDataManager.m, line 216.'
p112
sg79
I00
sg80
S'2013-07-02 21:16:13'
p113
sg82
g100
sg84
g85
sa(dp114
g73
g74
sg75
S"When showing pass edit view, check 'password.isUsed'."
p115
sg77
S'TODO grabbed from src/Passone/Passone/CPPassEditViewManager.m, line 61.'
p116
sg79
I01
sg80
S'2013-07-02 21:16:13'
p117
sg82
S'src/Passone/Passone/CPPassEditViewManager.m'
p118
sg84
S'done'
p119
sa(dp120
g73
g74
sg75
S'When showing pass edit view, if the cell is unset, focus on the text field.'
p121
sg77
S'TODO grabbed from src/Passone/Passone/CPPassEditViewManager.m, line 72.'
p122
sg79
I01
sg80
S'2013-07-02 21:16:13'
p123
sg82
g118
sg84
S'done'
p124
sa(dp125
g73
g74
sg75
S'When showing pass edit view, if the cell has been set, hide the password for security.'
p126
sg77
S'TODO grabbed from src/Passone/Passone/CPPassEditViewManager.m, line 75.'
p127
sg79
I01
sg80
S'2013-07-02 21:16:13'
p128
sg82
g118
sg84
S'done'
p129
sa(dp130
S'author'
p131
S'TODO grabber'
p132
sS'text'
p133
S'When showing pass edit view, animate its background color if pass cell is gray.'
p134
sS'detail'
p135
S'TODO grabbed from src/Passone/Passone/CPPassEditViewManager.m, line 61.'
p136
sS'exported'
p137
I01
sS'time'
p138
S'2013-07-04 17:52:44'
p139
sS'path'
p140
S'src/Passone/Passone/CPPassEditViewManager.m'
p141
sS'condition'
p142
S'done'
p143
sa(dp144
S'author'
p145
S'TODO grabber'
p146
sS'text'
p147
S"Move 'backgroundColorOfPassword:' into CPPassword"
p148
sS'detail'
p149
S'TODO grabbed from src/Passone/Passone/CPPassGridManager.m, line 151.'
p150
sS'exported'
p151
I01
sS'time'
p152
S'2013-07-04 17:55:52'
p153
sS'path'
p154
S'src/Passone/Passone/CPPassGridManager.m'
p155
sS'condition'
p156
g143
sa(dp157
S'author'
p158
S'TODO grabber'
p159
sS'text'
p160
S'If password text is set to empty, mark it with not used.'
p161
sS'detail'
p162
S'TODO grabbed from src/Passone/Passone/CPPassDataManager.m, line 89.'
p163
sS'exported'
p164
I01
sS'time'
p165
S'2013-07-04 18:05:54'
p166
sS'path'
p167
S'src/Passone/Passone/CPPassDataManager.m'
p168
sS'condition'
p169
S'done'
p170
sa(dp171
S'author'
p172
S'TODO grabber'
p173
sS'text'
p174
S'When hiding pass edit view, animate its background color if pass cell is gray.'
p175
sS'detail'
p176
S'TODO grabbed from src/Passone/Passone/CPPassEditViewManager.m, line 135.'
p177
sS'exported'
p178
I01
sS'time'
p179
S'2013-07-04 18:07:51'
p180
sS'path'
p181
S'src/Passone/Passone/CPPassEditViewManager.m'
p182
sS'condition'
p183
S'done'
p184
sa(dp185
S'author'
p186
S'TODO grabber'
p187
sS'text'
p188
S'Tap once on pass cell to copy password. Tap twice to show pass edit view.'
p189
sS'detail'
p190
S'TODO grabbed from src/Passone/Passone/CPPassCell.m, line 44.'
p191
sS'exported'
p192
I00
sS'time'
p193
S'2013-07-04 18:32:57'
p194
sS'path'
p195
S'src/Passone/Passone/CPPassCell.m'
p196
sS'condition'
p197
g85
sa(dp198
S'author'
p199
S'TODO grabber'
p200
sS'text'
p201
S'Show notification when removing a pass cell by setting an empty text.'
p202
sS'detail'
p203
S'TODO grabbed from src/Passone/Passone/CPPassDataManager.m, line 80.'
p204
sS'exported'
p205
I01
sS'time'
p206
S'2013-07-05 18:28:53'
p207
sS'path'
p208
S'src/Passone/Passone/CPPassDataManager.m'
p209
sS'condition'
p210
S'done'
p211
sa(dp212
S'author'
p213
S'TODO grabber'
p214
sS'text'
p215
S'Handling pass cell pan began, start removing animation.'
p216
sS'detail'
p217
S'TODO grabbed from src/Passone/Passone/CPPassCell.m, line 80.'
p218
sS'exported'
p219
I01
sS'time'
p220
S'2013-07-05 18:38:36'
p221
sS'path'
p222
S'src/Passone/Passone/CPPassCell.m'
p223
sS'condition'
p224
S'done'
p225
sa(dp226
g213
g214
sg215
S'Handling pass cell pan changed, record translation and animate.'
p227
sg217
S'TODO grabbed from src/Passone/Passone/CPPassCell.m, line 89.'
p228
sg219
I01
sg220
S'2013-07-05 18:38:36'
p229
sg222
g223
sg224
g225
sa(dp230
g213
g214
sg215
S'Handling pass cell pan ended, stop removing animation.'
p231
sg217
S'TODO grabbed from src/Passone/Passone/CPPassCell.m, line 134.'
p232
sg219
I01
sg220
S'2013-07-05 18:38:36'
p233
sg222
g223
sg224
S'done'
p234
sa(dp235
g213
g214
sg215
S'Handling pass cell pan ended, check if translation reach 50%.'
p236
sg217
S'TODO grabbed from src/Passone/Passone/CPPassCell.m, line 135.'
p237
sg219
I01
sg220
S'2013-07-05 18:38:36'
p238
sg222
g223
sg224
g234
sa(dp239
g213
g214
sg215
S'Handling pass cell pan ended, may directly access model instead of delegate.'
p240
sg217
S'TODO grabbed from src/Passone/Passone/CPPassCell.m, line 136.'
p241
sg219
I01
sg220
S'2013-07-05 18:38:36'
p242
sg222
g223
sg224
g234
sa(dp243
S'author'
p244
S'TODO grabber'
p245
sS'text'
p246
S"Handling pass cell pan changed, adding text 'Swipe/Release to remove'."
p247
sS'detail'
p248
S'TODO grabbed from src/Passone/Passone/CPPassCell.m, line 122.'
p249
sS'exported'
p250
I01
sS'time'
p251
S'2013-07-06 18:23:11'
p252
sS'path'
p253
S'src/Passone/Passone/CPPassCell.m'
p254
sS'condition'
p255
S'done'
p256
sa(dp257
g244
g245
sg246
S'Move creation of CPNotificationCenter to proper place.'
p258
sg248
S'TODO grabbed from src/Passone/Passone/CPPassGridManager.m, line 81.'
p259
sg250
I01
sg251
S'2013-07-06 18:23:11'
p260
sg253
S'src/Passone/Passone/CPPassGridManager.m'
p261
sg255
S'done'
p262
sa(dp263
S'author'
p264
S'TODO grabber'
p265
sS'text'
p266
S'Adjust font of pass cell removing label.'
p267
sS'detail'
p268
S'TODO grabbed from src/Passone/Passone/CPPassCell.m, line 108.'
p269
sS'exported'
p270
I00
sS'time'
p271
S'2013-07-06 21:10:14'
p272
sS'path'
p273
S'src/Passone/Passone/CPPassCell.m'
p274
sS'condition'
p275
g85
sa(dp276
S'author'
p277
S'TODO grabber'
p278
sS'text'
p279
S'Change behavior of pass cell removing view & label if cannot toggle remove state.'
p280
sS'detail'
p281
S'TODO grabbed from src/Passone/Passone/CPPassCell.m, line 165.'
p282
sS'exported'
p283
I00
sS'time'
p284
S'2013-07-06 21:28:07'
p285
sS'path'
p286
S'src/Passone/Passone/CPPassCell.m'
p287
sS'condition'
p288
g85
sa(dp289
S'author'
p290
S'TODO grabber'
p291
sS'text'
p292
S'Write code to start removing a memo cell.'
p293
sS'detail'
p294
S'TODO grabbed from src/Passone/Passone/CPSearchViewManager.m, line 248.'
p295
sS'exported'
p296
I01
sS'time'
p297
S'2013-07-17 18:37:03'
p298
sS'path'
p299
S'src/Passone/Passone/CPSearchViewManager.m'
p300
sS'condition'
p301
S'done'
p302
sa(dp303
g290
g291
sg292
S'Write code to continue removing a memo cell.'
p304
sg294
S'TODO grabbed from src/Passone/Passone/CPSearchViewManager.m, line 262.'
p305
sg296
I01
sg297
S'2013-07-17 18:37:03'
p306
sg299
g300
sg301
g302
sa(dp307
g290
g291
sg292
S'Write code to stop removing a memo cell.'
p308
sg294
S'TODO grabbed from src/Passone/Passone/CPSearchViewManager.m, line 299.'
p309
sg296
I00
sg297
S'2013-07-17 18:37:03'
p310
sg299
g300
sg301
S'remv'
p311
sa(dp312
S'author'
p313
S'TODO grabber'
p314
sS'text'
p315
S"When removing a memo cell, show 'Swipe/Release to remove'."
p316
sS'detail'
p317
S'TODO grabbed from src/Passone/Passone/CPSearchViewManager.m, line 286.'
p318
sS'exported'
p319
I00
sS'time'
p320
S'2013-07-18 18:40:19'
p321
sS'path'
p322
S'src/Passone/Passone/CPSearchViewManager.m'
p323
sS'condition'
p324
S'remv'
p325
sa(dp326
S'author'
p327
S'TODO grabber'
p328
sS'text'
p329
S'Set the return key type of text field in Pass Edit View to done.'
p330
sS'detail'
p331
S'TODO grabbed from src/Passone/Passone/CPPassEditViewManager.m, line 169.'
p332
sS'exported'
p333
I01
sS'time'
p334
S'2013-08-03 16:18:40'
p335
sS'path'
p336
S'src/Passone/Passone/CPPassEditViewManager.m'
p337
sS'condition'
p338
S'done'
p339
sa(dp340
S'author'
p341
S'TODO grabber'
p342
sS'text'
p343
S"When removing a memo cell, show 'Swipe/Release to remove'."
p344
sS'detail'
p345
S'TODO grabbed from src/Passone/Passone/CPMemoCollectionViewManager.m, line 172.'
p346
sS'exported'
p347
I01
sS'time'
p348
S'2013-08-04 16:45:07'
p349
sS'path'
p350
S'src/Passone/Passone/CPMemoCollectionViewManager.m'
p351
sS'condition'
p352
S'done'
p353
sa(dp354
g341
g342
sg343
S'Write code to stop removing a memo cell.'
p355
sg345
S'TODO grabbed from src/Passone/Passone/CPMemoCollectionViewManager.m, line 184.'
p356
sg347
I01
sg348
S'2013-08-04 16:45:07'
p357
sg350
g351
sg352
S'done'
p358
sa(dp359
S'author'
p360
S'TODO grabber'
p361
sS'text'
p362
S'Add animation for removing a memo cell.'
p363
sS'detail'
p364
S'TODO grabbed from src/Passone/Passone/CPMemoCollectionViewManager.m, line 225.'
p365
sS'exported'
p366
I01
sS'time'
p367
S'2013-08-05 18:38:59'
p368
sS'path'
p369
S'src/Passone/Passone/CPMemoCollectionViewManager.m'
p370
sS'condition'
p371
S'done'
p372
sa(dp373
S'author'
p374
S'TODO grabber'
p375
sS'text'
p376
S'Improve animation for removing a memo cell.'
p377
sS'detail'
p378
S'TODO grabbed from src/Passone/Passone/CPMemoCollectionViewManager.m, line 235.'
p379
sS'exported'
p380
I00
sS'time'
p381
S'2013-08-09 18:29:39'
p382
sS'path'
p383
S'src/Passone/Passone/CPMemoCollectionViewManager.m'
p384
sS'condition'
p385
g85
sa(dp386
S'author'
p387
S'TODO grabber'
p388
sS'text'
p389
S'Adjust font of label in main password input view.'
p390
sS'detail'
p391
S'TODO grabbed from src/Passone/Passone/CPMainPasswordManager.m, line 164.'
p392
sS'exported'
p393
I00
sS'time'
p394
S'2013-08-16 18:02:14'
p395
sS'path'
p396
S'src/Passone/Passone/CPMainPasswordManager.m'
p397
sS'condition'
p398
g85
sa(dp399
g387
g388
sg389
S'Add a button in main password input view.'
p400
sg391
S'TODO grabbed from src/Passone/Passone/CPMainPasswordManager.m, line 191.'
p401
sg393
I00
sg394
S'2013-08-16 18:02:14'
p402
sg396
g397
sg398
g85
sa(dp403
S'author'
p404
S'TODO grabber'
p405
sS'text'
p406
S'Determine if the memo cell should fall back to original position when you start removing after it is raised up when editing.'
p407
sS'detail'
p408
S'TODO grabbed from src/Passone/Passone/CPMemoCollectionViewManager.m, line 172.'
p409
sS'exported'
p410
I00
sS'time'
p411
S'2013-08-19 18:20:21'
p412
sS'path'
p413
S'src/Passone/Passone/CPMemoCollectionViewManager.m'
p414
sS'condition'
p415
g85
sa(dp416
S'author'
p417
S'TODO grabber'
p418
sS'text'
p419
S'Stop it if being currently editing memo cells in pass edit view.'
p420
sS'detail'
p421
S'TODO grabbed from src/Passone/Passone/CPSearchViewManager.m, line 188.'
p422
sS'exported'
p423
I00
sS'time'
p424
S'2013-08-19 18:28:49'
p425
sS'path'
p426
S'src/Passone/Passone/CPSearchViewManager.m'
p427
sS'condition'
p428
g85
sa(dp429
S'author'
p430
S'TODO grabber'
p431
sS'text'
p432
S'When removing pass cell, use images instead of single-colored views.'
p433
sS'detail'
p434
S'TODO grabbed from src/Passone/Passone/CPPassCell.m, line 91.'
p435
sS'exported'
p436
I00
sS'time'
p437
S'2013-08-19 18:36:37'
p438
sS'path'
p439
S'src/Passone/Passone/CPPassCell.m'
p440
sS'condition'
p441
g85
sa.