(lp0
(dp1
S'author'
p2
S'TODO grabber'
p3
sS'text'
p4
S'Add padding to notification labels, maybe also border radius.'
p5
sS'detail'
p6
S'TODO grabbed from /Users/wangsw/Workspace/ObjectC/Passone/src/Passone/Passone/CPNotificationCenter.m, line 70.'
p7
sS'exported'
p8
I01
sS'time'
p9
S'2013-06-29 18:42:26'
p10
sS'path'
p11
S'/Users/wangsw/Workspace/ObjectC/Passone/src/Passone/Passone/CPNotificationCenter.m'
p12
sS'condition'
p13
S'done'
p14
saNaNaNaNaNaNa(dp15
g2
g3
sg4
S'Show the password edit view with an animation of alpha from 0.0 to 1.0.'
p16
sg6
S'TODO grabbed from /Users/wangsw/Workspace/ObjectC/Passone/src/Passone/Passone/CPPassEditViewManager.m, line 74.'
p17
sg8
I01
sg9
S'2013-06-29 18:42:26'
p18
sg11
S'/Users/wangsw/Workspace/ObjectC/Passone/src/Passone/Passone/CPPassEditViewManager.m'
p19
sg13
S'done'
p20
sa(dp21
g2
g3
sg4
S'Remove password edit view with an animation of alpha from 0.0 to 1.0.'
p22
sg6
S'TODO grabbed from /Users/wangsw/Workspace/ObjectC/Passone/src/Passone/Passone/CPPassEditViewManager.m, line 120.'
p23
sg8
I01
sg9
S'2013-06-29 18:42:26'
p24
sg11
g19
sg13
g20
sa(dp25
g2
g3
sg4
S'(IN UNIT TEST) Use changable data to replace @"changed".'
p26
sg6
S'TODO grabbed from /Users/wangsw/Workspace/ObjectC/Passone/src/Passone/PassoneTests/CPPassDataManagerTests.m, line 47.'
p27
sg8
I00
sg9
S'2013-06-29 18:42:26'
p28
sg11
S'/Users/wangsw/Workspace/ObjectC/Passone/src/Passone/PassoneTests/CPPassDataManagerTests.m'
p29
sg13
S'remv'
p30
saNa(dp31
S'author'
p32
S'TODO grabber'
p33
sS'text'
p34
S'Change height of notification labels for longer text.'
p35
sS'detail'
p36
S'TODO grabbed from /Users/wangsw/Workspace/ObjectC/Passone/src/Passone/Passone/CPNotificationCenter.m, line 71.'
p37
sS'exported'
p38
I01
sS'time'
p39
S'2013-06-29 20:19:21'
p40
sS'path'
p41
S'/Users/wangsw/Workspace/ObjectC/Passone/src/Passone/Passone/CPNotificationCenter.m'
p42
sS'condition'
p43
g14
sa(dp44
S'author'
p45
S'TODO grabber'
p46
sS'text'
p47
S"Calculated notification label width doesn't fit the pass grid. 1px difference. Need change."
p48
sS'detail'
p49
S'TODO grabbed from /Users/wangsw/Workspace/ObjectC/Passone/src/Passone/Passone/CPNotificationCenter.m, line 54.'
p50
sS'exported'
p51
I01
sS'time'
p52
S'2013-06-30 08:57:28'
p53
sS'path'
p54
S'/Users/wangsw/Workspace/ObjectC/Passone/src/Passone/Passone/CPNotificationCenter.m'
p55
sS'condition'
p56
S'done'
p57
saNaNa(dp58
S'author'
p59
S'TODO grabber'
p60
sS'text'
p61
S'Adjust pass cell shadow.'
p62
sS'detail'
p63
S'TODO grabbed from /Users/codingpotato/Development/Passone/src/Passone/Passone/CPPassCell.m, line 27.'
p64
sS'exported'
p65
I00
sS'time'
p66
S'2013-07-02 13:21:38'
p67
sS'path'
p68
S'/Users/codingpotato/Development/Passone/src/Passone/Passone/CPPassCell.m'
p69
sS'condition'
p70
S'remv'
p71
saNaNaNaNaNaNaNaNa(dp72
S'author'
p73
S'TODO grabber'
p74
sS'text'
p75
S'Limit the number of notifications.'
p76
sS'detail'
p77
S'TODO grabbed from src/Passone/Passone/CPNotificationCenter.m, line 61.'
p78
sS'exported'
p79
I00
sS'time'
p80
S'2013-07-02 21:16:13'
p81
sS'path'
p82
S'src/Passone/Passone/CPNotificationCenter.m'
p83
sS'condition'
p84
S'open'
p85
sa(dp86
g73
g74
sg75
S'Determine how long a notification should stay on the screen.'
p87
sg77
S'TODO grabbed from src/Passone/Passone/CPNotificationCenter.m, line 111.'
p88
sg79
I00
sg80
S'2013-07-02 21:16:13'
p89
sg82
g83
sg84
g85
sa(dp90
g73
g74
sg75
S'Now use long press to simulate two-finger swipe, change it later.'
p91
sg77
S'TODO grabbed from src/Passone/Passone/CPPassCell.m, line 57.'
p92
sg79
I00
sg80
S'2013-07-02 21:16:13'
p93
sg82
S'src/Passone/Passone/CPPassCell.m'
p94
sg84
g85
sa(dp95
g73
g74
sg75
S'The third and last two colors for cells are too similar, so they need to be changed.'
p96
sg77
S'TODO grabbed from src/Passone/Passone/CPPassDataManager.m, line 57.'
p97
sg79
I00
sg80
S'2013-07-02 21:16:13'
p98
sg82
S'src/Passone/Passone/CPPassDataManager.m'
p99
sg84
g85
sa(dp100
g73
g74
sg75
S'BUG! cannot undo before setPasswordText.'
p101
sg77
S'TODO grabbed from src/Passone/Passone/CPPassDataManager.m, line 115.'
p102
sg79
I01
sg80
S'2013-07-02 21:16:13'
p103
sg82
g99
sg84
S'done'
p104
sa(dp105
g73
g74
sg75
S'MAY ABORT! Handle the error appropriately when saving context.'
p106
sg77
S'TODO grabbed from src/Passone/Passone/CPPassDataManager.m, line 146.'
p107
sg79
I00
sg80
S'2013-07-02 21:16:13'
p108
sg82
g99
sg84
g85
sa(dp109
g73
g74
sg75
S'MAY ABORT! Handle the error appropriately when initializing persistent store coordinator.'
p110
sg77
S'TODO grabbed from src/Passone/Passone/CPPassDataManager.m, line 183.'
p111
sg79
I00
sg80
S'2013-07-02 21:16:13'
p112
sg82
g99
sg84
g85
sa(dp113
g73
g74
sg75
S"When showing pass edit view, check 'password.isUsed'."
p114
sg77
S'TODO grabbed from src/Passone/Passone/CPPassEditViewManager.m, line 61.'
p115
sg79
I01
sg80
S'2013-07-02 21:16:13'
p116
sg82
S'src/Passone/Passone/CPPassEditViewManager.m'
p117
sg84
S'done'
p118
sa(dp119
g73
g74
sg75
S'When showing pass edit view, if the cell is unset, focus on the text field.'
p120
sg77
S'TODO grabbed from src/Passone/Passone/CPPassEditViewManager.m, line 72.'
p121
sg79
I01
sg80
S'2013-07-02 21:16:13'
p122
sg82
g117
sg84
S'done'
p123
sa(dp124
g73
g74
sg75
S'When showing pass edit view, if the cell has been set, hide the password for security.'
p125
sg77
S'TODO grabbed from src/Passone/Passone/CPPassEditViewManager.m, line 73.'
p126
sg79
I00
sg80
S'2013-07-02 21:16:13'
p127
sg82
g117
sg84
g85
sa(dp128
S'author'
p129
S'TODO grabber'
p130
sS'text'
p131
S'When showing pass edit view, animate its background color if pass cell is gray.'
p132
sS'detail'
p133
S'TODO grabbed from src/Passone/Passone/CPPassEditViewManager.m, line 61.'
p134
sS'exported'
p135
I01
sS'time'
p136
S'2013-07-04 17:52:44'
p137
sS'path'
p138
S'src/Passone/Passone/CPPassEditViewManager.m'
p139
sS'condition'
p140
S'done'
p141
sa(dp142
S'author'
p143
S'TODO grabber'
p144
sS'text'
p145
S"Move 'backgroundColorOfPassword:' into CPPassword"
p146
sS'detail'
p147
S'TODO grabbed from src/Passone/Passone/CPPassGridManager.m, line 151.'
p148
sS'exported'
p149
I01
sS'time'
p150
S'2013-07-04 17:55:52'
p151
sS'path'
p152
S'src/Passone/Passone/CPPassGridManager.m'
p153
sS'condition'
p154
g141
sa(dp155
S'author'
p156
S'TODO grabber'
p157
sS'text'
p158
S'If password text is set to empty, mark it with not used.'
p159
sS'detail'
p160
S'TODO grabbed from src/Passone/Passone/CPPassDataManager.m, line 89.'
p161
sS'exported'
p162
I01
sS'time'
p163
S'2013-07-04 18:05:54'
p164
sS'path'
p165
S'src/Passone/Passone/CPPassDataManager.m'
p166
sS'condition'
p167
S'done'
p168
sa(dp169
S'author'
p170
S'TODO grabber'
p171
sS'text'
p172
S'When hiding pass edit view, animate its background color if pass cell is gray.'
p173
sS'detail'
p174
S'TODO grabbed from src/Passone/Passone/CPPassEditViewManager.m, line 135.'
p175
sS'exported'
p176
I01
sS'time'
p177
S'2013-07-04 18:07:51'
p178
sS'path'
p179
S'src/Passone/Passone/CPPassEditViewManager.m'
p180
sS'condition'
p181
S'done'
p182
sa.