(lp0
(dp1
S'author'
p2
S'TODO grabber'
p3
sS'text'
p4
S'Add padding to notification labels, maybe also border radius.'
p5
sS'detail'
p6
S'TODO grabbed from /Users/wangsw/Workspace/ObjectC/Passone/src/Passone/Passone/CPNotificationCenter.m, line 70.'
p7
sS'exported'
p8
I01
sS'time'
p9
S'2013-06-29 18:42:26'
p10
sS'path'
p11
S'/Users/wangsw/Workspace/ObjectC/Passone/src/Passone/Passone/CPNotificationCenter.m'
p12
sS'condition'
p13
S'done'
p14
saNaNaNaNaNaNa(dp15
g2
g3
sg4
S'Show the password edit view with an animation of alpha from 0.0 to 1.0.'
p16
sg6
S'TODO grabbed from /Users/wangsw/Workspace/ObjectC/Passone/src/Passone/Passone/CPPassEditViewManager.m, line 74.'
p17
sg8
I01
sg9
S'2013-06-29 18:42:26'
p18
sg11
S'/Users/wangsw/Workspace/ObjectC/Passone/src/Passone/Passone/CPPassEditViewManager.m'
p19
sg13
S'done'
p20
sa(dp21
g2
g3
sg4
S'Remove password edit view with an animation of alpha from 0.0 to 1.0.'
p22
sg6
S'TODO grabbed from /Users/wangsw/Workspace/ObjectC/Passone/src/Passone/Passone/CPPassEditViewManager.m, line 120.'
p23
sg8
I01
sg9
S'2013-06-29 18:42:26'
p24
sg11
g19
sg13
g20
sa(dp25
g2
g3
sg4
S'(IN UNIT TEST) Use changable data to replace @"changed".'
p26
sg6
S'TODO grabbed from /Users/wangsw/Workspace/ObjectC/Passone/src/Passone/PassoneTests/CPPassDataManagerTests.m, line 47.'
p27
sg8
I00
sg9
S'2013-06-29 18:42:26'
p28
sg11
S'/Users/wangsw/Workspace/ObjectC/Passone/src/Passone/PassoneTests/CPPassDataManagerTests.m'
p29
sg13
S'remv'
p30
saNa(dp31
S'author'
p32
S'TODO grabber'
p33
sS'text'
p34
S'Change height of notification labels for longer text.'
p35
sS'detail'
p36
S'TODO grabbed from /Users/wangsw/Workspace/ObjectC/Passone/src/Passone/Passone/CPNotificationCenter.m, line 71.'
p37
sS'exported'
p38
I01
sS'time'
p39
S'2013-06-29 20:19:21'
p40
sS'path'
p41
S'/Users/wangsw/Workspace/ObjectC/Passone/src/Passone/Passone/CPNotificationCenter.m'
p42
sS'condition'
p43
g14
sa(dp44
S'author'
p45
S'TODO grabber'
p46
sS'text'
p47
S"Calculated notification label width doesn't fit the pass grid. 1px difference. Need change."
p48
sS'detail'
p49
S'TODO grabbed from /Users/wangsw/Workspace/ObjectC/Passone/src/Passone/Passone/CPNotificationCenter.m, line 54.'
p50
sS'exported'
p51
I01
sS'time'
p52
S'2013-06-30 08:57:28'
p53
sS'path'
p54
S'/Users/wangsw/Workspace/ObjectC/Passone/src/Passone/Passone/CPNotificationCenter.m'
p55
sS'condition'
p56
S'done'
p57
saNaNa(dp58
S'author'
p59
S'TODO grabber'
p60
sS'text'
p61
S'Adjust pass cell shadow.'
p62
sS'detail'
p63
S'TODO grabbed from /Users/codingpotato/Development/Passone/src/Passone/Passone/CPPassCell.m, line 27.'
p64
sS'exported'
p65
I00
sS'time'
p66
S'2013-07-02 13:21:38'
p67
sS'path'
p68
S'/Users/codingpotato/Development/Passone/src/Passone/Passone/CPPassCell.m'
p69
sS'condition'
p70
S'remv'
p71
saNaNaNaNaNaNaNaNa(dp72
S'author'
p73
S'TODO grabber'
p74
sS'text'
p75
S'Limit the number of notifications.'
p76
sS'detail'
p77
S'TODO grabbed from src/Passone/Passone/CPNotificationCenter.m, line 61.'
p78
sS'exported'
p79
I00
sS'time'
p80
S'2013-07-02 21:16:13'
p81
sS'path'
p82
S'src/Passone/Passone/CPNotificationCenter.m'
p83
sS'condition'
p84
S'open'
p85
sa(dp86
g73
g74
sg75
S'Determine how long a notification should stay on the screen.'
p87
sg77
S'TODO grabbed from src/Passone/Passone/CPNotificationCenter.m, line 111.'
p88
sg79
I00
sg80
S'2013-07-02 21:16:13'
p89
sg82
g83
sg84
g85
sa(dp90
g73
g74
sg75
S'Now use long press to simulate two-finger swipe, change it later.'
p91
sg77
S'TODO grabbed from src/Passone/Passone/CPPassCell.m, line 57.'
p92
sg79
I00
sg80
S'2013-07-02 21:16:13'
p93
sg82
S'src/Passone/Passone/CPPassCell.m'
p94
sg84
S'remv'
p95
sa(dp96
g73
g74
sg75
S'The third and last two colors for cells are too similar, so they need to be changed.'
p97
sg77
S'TODO grabbed from src/Passone/Passone/CPPassDataManager.m, line 57.'
p98
sg79
I00
sg80
S'2013-07-02 21:16:13'
p99
sg82
S'src/Passone/Passone/CPPassDataManager.m'
p100
sg84
g85
sa(dp101
g73
g74
sg75
S'BUG! Cannot undo before setPasswordText.'
p102
sg77
S'TODO grabbed from src/Passone/Passone/CPPassDataManager.m, line 115.'
p103
sg79
I01
sg80
S'2013-07-02 21:16:13'
p104
sg82
g100
sg84
S'done'
p105
sa(dp106
g73
g74
sg75
S'MAY ABORT! Handle the error appropriately when saving context.'
p107
sg77
S'TODO grabbed from src/Passone/Passone/CPPassDataManager.m, line 150.'
p108
sg79
I00
sg80
S'2013-07-02 21:16:13'
p109
sg82
g100
sg84
g85
sa(dp110
g73
g74
sg75
S'MAY ABORT! Handle the error appropriately when initializing persistent store coordinator.'
p111
sg77
S'TODO grabbed from src/Passone/Passone/CPPassDataManager.m, line 187.'
p112
sg79
I00
sg80
S'2013-07-02 21:16:13'
p113
sg82
g100
sg84
g85
sa(dp114
g73
g74
sg75
S"When showing pass edit view, check 'password.isUsed'."
p115
sg77
S'TODO grabbed from src/Passone/Passone/CPPassEditViewManager.m, line 61.'
p116
sg79
I01
sg80
S'2013-07-02 21:16:13'
p117
sg82
S'src/Passone/Passone/CPPassEditViewManager.m'
p118
sg84
S'done'
p119
sa(dp120
g73
g74
sg75
S'When showing pass edit view, if the cell is unset, focus on the text field.'
p121
sg77
S'TODO grabbed from src/Passone/Passone/CPPassEditViewManager.m, line 72.'
p122
sg79
I01
sg80
S'2013-07-02 21:16:13'
p123
sg82
g118
sg84
S'done'
p124
sa(dp125
g73
g74
sg75
S'When showing pass edit view, if the cell has been set, hide the password for security.'
p126
sg77
S'TODO grabbed from src/Passone/Passone/CPPassEditViewManager.m, line 73.'
p127
sg79
I00
sg80
S'2013-07-02 21:16:13'
p128
sg82
g118
sg84
g85
sa(dp129
S'author'
p130
S'TODO grabber'
p131
sS'text'
p132
S'When showing pass edit view, animate its background color if pass cell is gray.'
p133
sS'detail'
p134
S'TODO grabbed from src/Passone/Passone/CPPassEditViewManager.m, line 61.'
p135
sS'exported'
p136
I01
sS'time'
p137
S'2013-07-04 17:52:44'
p138
sS'path'
p139
S'src/Passone/Passone/CPPassEditViewManager.m'
p140
sS'condition'
p141
S'done'
p142
sa(dp143
S'author'
p144
S'TODO grabber'
p145
sS'text'
p146
S"Move 'backgroundColorOfPassword:' into CPPassword"
p147
sS'detail'
p148
S'TODO grabbed from src/Passone/Passone/CPPassGridManager.m, line 151.'
p149
sS'exported'
p150
I01
sS'time'
p151
S'2013-07-04 17:55:52'
p152
sS'path'
p153
S'src/Passone/Passone/CPPassGridManager.m'
p154
sS'condition'
p155
g142
sa(dp156
S'author'
p157
S'TODO grabber'
p158
sS'text'
p159
S'If password text is set to empty, mark it with not used.'
p160
sS'detail'
p161
S'TODO grabbed from src/Passone/Passone/CPPassDataManager.m, line 89.'
p162
sS'exported'
p163
I01
sS'time'
p164
S'2013-07-04 18:05:54'
p165
sS'path'
p166
S'src/Passone/Passone/CPPassDataManager.m'
p167
sS'condition'
p168
S'done'
p169
sa(dp170
S'author'
p171
S'TODO grabber'
p172
sS'text'
p173
S'When hiding pass edit view, animate its background color if pass cell is gray.'
p174
sS'detail'
p175
S'TODO grabbed from src/Passone/Passone/CPPassEditViewManager.m, line 135.'
p176
sS'exported'
p177
I01
sS'time'
p178
S'2013-07-04 18:07:51'
p179
sS'path'
p180
S'src/Passone/Passone/CPPassEditViewManager.m'
p181
sS'condition'
p182
S'done'
p183
sa(dp184
S'author'
p185
S'TODO grabber'
p186
sS'text'
p187
S'Tap once on pass cell to copy password. Tap twice to show pass edit view.'
p188
sS'detail'
p189
S'TODO grabbed from src/Passone/Passone/CPPassCell.m, line 31.'
p190
sS'exported'
p191
I00
sS'time'
p192
S'2013-07-04 18:32:57'
p193
sS'path'
p194
S'src/Passone/Passone/CPPassCell.m'
p195
sS'condition'
p196
g85
sa(dp197
S'author'
p198
S'TODO grabber'
p199
sS'text'
p200
S'Show notification when removing a pass cell by setting an empty text.'
p201
sS'detail'
p202
S'TODO grabbed from src/Passone/Passone/CPPassDataManager.m, line 78.'
p203
sS'exported'
p204
I00
sS'time'
p205
S'2013-07-05 18:28:53'
p206
sS'path'
p207
S'src/Passone/Passone/CPPassDataManager.m'
p208
sS'condition'
p209
g85
sa(dp210
S'author'
p211
S'TODO grabber'
p212
sS'text'
p213
S'Handling pass cell pan began, start removing animation.'
p214
sS'detail'
p215
S'TODO grabbed from src/Passone/Passone/CPPassCell.m, line 80.'
p216
sS'exported'
p217
I00
sS'time'
p218
S'2013-07-05 18:38:36'
p219
sS'path'
p220
S'src/Passone/Passone/CPPassCell.m'
p221
sS'condition'
p222
g85
sa(dp223
g211
g212
sg213
S'Handling pass cell pan changed, record translation and animate.'
p224
sg215
S'TODO grabbed from src/Passone/Passone/CPPassCell.m, line 89.'
p225
sg217
I00
sg218
S'2013-07-05 18:38:36'
p226
sg220
g221
sg222
g85
sa(dp227
g211
g212
sg213
S'Handling pass cell pan ended, stop removing animation.'
p228
sg215
S'TODO grabbed from src/Passone/Passone/CPPassCell.m, line 95.'
p229
sg217
I00
sg218
S'2013-07-05 18:38:36'
p230
sg220
g221
sg222
g85
sa(dp231
g211
g212
sg213
S'Handling pass cell pan ended, check if translation reach 50%.'
p232
sg215
S'TODO grabbed from src/Passone/Passone/CPPassCell.m, line 96.'
p233
sg217
I00
sg218
S'2013-07-05 18:38:36'
p234
sg220
g221
sg222
g85
sa(dp235
g211
g212
sg213
S'Handling pass cell pan ended, may directly access model instead of delegate.'
p236
sg215
S'TODO grabbed from src/Passone/Passone/CPPassCell.m, line 97.'
p237
sg217
I00
sg218
S'2013-07-05 18:38:36'
p238
sg220
g221
sg222
g85
sa.