(lp0
(dp1
S'author'
p2
S'TODO grabber'
p3
sS'text'
p4
S'Add padding to notification labels, maybe also border radius.'
p5
sS'detail'
p6
S'TODO grabbed from /Users/wangsw/Workspace/ObjectC/Passone/src/Passone/Passone/CPNotificationCenter.m, line 70.'
p7
sS'exported'
p8
I01
sS'time'
p9
S'2013-06-29 18:42:26'
p10
sS'path'
p11
S'/Users/wangsw/Workspace/ObjectC/Passone/src/Passone/Passone/CPNotificationCenter.m'
p12
sS'condition'
p13
S'done'
p14
saNaNaNaNaNaNa(dp15
g2
g3
sg4
S'Show the password edit view with an animation of alpha from 0.0 to 1.0.'
p16
sg6
S'TODO grabbed from /Users/wangsw/Workspace/ObjectC/Passone/src/Passone/Passone/CPPassEditViewManager.m, line 74.'
p17
sg8
I01
sg9
S'2013-06-29 18:42:26'
p18
sg11
S'/Users/wangsw/Workspace/ObjectC/Passone/src/Passone/Passone/CPPassEditViewManager.m'
p19
sg13
S'done'
p20
sa(dp21
g2
g3
sg4
S'Remove password edit view with an animation of alpha from 0.0 to 1.0.'
p22
sg6
S'TODO grabbed from /Users/wangsw/Workspace/ObjectC/Passone/src/Passone/Passone/CPPassEditViewManager.m, line 120.'
p23
sg8
I01
sg9
S'2013-06-29 18:42:26'
p24
sg11
g19
sg13
g20
sa(dp25
g2
g3
sg4
S'(IN UNIT TEST) Use changable data to replace @"changed".'
p26
sg6
S'TODO grabbed from /Users/wangsw/Workspace/ObjectC/Passone/src/Passone/PassoneTests/CPPassDataManagerTests.m, line 47.'
p27
sg8
I00
sg9
S'2013-06-29 18:42:26'
p28
sg11
S'/Users/wangsw/Workspace/ObjectC/Passone/src/Passone/PassoneTests/CPPassDataManagerTests.m'
p29
sg13
S'remv'
p30
saNa(dp31
S'author'
p32
S'TODO grabber'
p33
sS'text'
p34
S'Change height of notification labels for longer text.'
p35
sS'detail'
p36
S'TODO grabbed from /Users/wangsw/Workspace/ObjectC/Passone/src/Passone/Passone/CPNotificationCenter.m, line 71.'
p37
sS'exported'
p38
I01
sS'time'
p39
S'2013-06-29 20:19:21'
p40
sS'path'
p41
S'/Users/wangsw/Workspace/ObjectC/Passone/src/Passone/Passone/CPNotificationCenter.m'
p42
sS'condition'
p43
g14
sa(dp44
S'author'
p45
S'TODO grabber'
p46
sS'text'
p47
S"Calculated notification label width doesn't fit the pass grid. 1px difference. Need change."
p48
sS'detail'
p49
S'TODO grabbed from /Users/wangsw/Workspace/ObjectC/Passone/src/Passone/Passone/CPNotificationCenter.m, line 54.'
p50
sS'exported'
p51
I01
sS'time'
p52
S'2013-06-30 08:57:28'
p53
sS'path'
p54
S'/Users/wangsw/Workspace/ObjectC/Passone/src/Passone/Passone/CPNotificationCenter.m'
p55
sS'condition'
p56
S'done'
p57
saNaNa(dp58
S'author'
p59
S'TODO grabber'
p60
sS'text'
p61
S'Adjust pass cell shadow.'
p62
sS'detail'
p63
S'TODO grabbed from /Users/codingpotato/Development/Passone/src/Passone/Passone/CPPassCell.m, line 27.'
p64
sS'exported'
p65
I00
sS'time'
p66
S'2013-07-02 13:21:38'
p67
sS'path'
p68
S'/Users/codingpotato/Development/Passone/src/Passone/Passone/CPPassCell.m'
p69
sS'condition'
p70
S'remv'
p71
saNaNaNaNaNaNaNaNa(dp72
S'author'
p73
S'TODO grabber'
p74
sS'text'
p75
S'Limit the number of notifications.'
p76
sS'detail'
p77
S'TODO grabbed from src/Passone/Passone/CPNotificationCenter.m, line 99.'
p78
sS'exported'
p79
I00
sS'time'
p80
S'2013-07-02 21:16:13'
p81
sS'path'
p82
S'src/Passone/Passone/CPNotificationCenter.m'
p83
sS'condition'
p84
S'open'
p85
sa(dp86
g73
g74
sg75
S'Determine how long a notification should stay on the screen.'
p87
sg77
S'TODO grabbed from src/Passone/Passone/CPNotificationCenter.m, line 151.'
p88
sg79
I00
sg80
S'2013-07-02 21:16:13'
p89
sg82
g83
sg84
g85
sa(dp90
g73
g74
sg75
S'Now use long press to simulate two-finger swipe, change it later.'
p91
sg77
S'TODO grabbed from src/Passone/Passone/CPPassCell.m, line 57.'
p92
sg79
I00
sg80
S'2013-07-02 21:16:13'
p93
sg82
S'src/Passone/Passone/CPPassCell.m'
p94
sg84
S'remv'
p95
sa(dp96
g73
g74
sg75
S'The third and last two colors for cells are too similar, so they need to be changed.'
p97
sg77
S'TODO grabbed from src/Passone/Passone/CPPassDataManager.m, line 59.'
p98
sg79
I00
sg80
S'2013-07-02 21:16:13'
p99
sg82
S'src/Passone/Passone/CPPassDataManager.m'
p100
sg84
g85
sa(dp101
g73
g74
sg75
S'BUG! Cannot undo before setPasswordText.'
p102
sg77
S'TODO grabbed from src/Passone/Passone/CPPassDataManager.m, line 115.'
p103
sg79
I01
sg80
S'2013-07-02 21:16:13'
p104
sg82
g100
sg84
S'done'
p105
sa(dp106
g73
g74
sg75
S'MAY ABORT! Handle the error appropriately when saving context.'
p107
sg77
S'TODO grabbed from src/Passone/Passone/CPPassDataManager.m, line 179.'
p108
sg79
I00
sg80
S'2013-07-02 21:16:13'
p109
sg82
g100
sg84
g85
sa(dp110
g73
g74
sg75
S'MAY ABORT! Handle the error appropriately when initializing persistent store coordinator.'
p111
sg77
S'TODO grabbed from src/Passone/Passone/CPPassDataManager.m, line 216.'
p112
sg79
I00
sg80
S'2013-07-02 21:16:13'
p113
sg82
g100
sg84
g85
sa(dp114
g73
g74
sg75
S"When showing pass edit view, check 'password.isUsed'."
p115
sg77
S'TODO grabbed from src/Passone/Passone/CPPassEditViewManager.m, line 61.'
p116
sg79
I01
sg80
S'2013-07-02 21:16:13'
p117
sg82
S'src/Passone/Passone/CPPassEditViewManager.m'
p118
sg84
S'done'
p119
sa(dp120
g73
g74
sg75
S'When showing pass edit view, if the cell is unset, focus on the text field.'
p121
sg77
S'TODO grabbed from src/Passone/Passone/CPPassEditViewManager.m, line 72.'
p122
sg79
I01
sg80
S'2013-07-02 21:16:13'
p123
sg82
g118
sg84
S'done'
p124
sa(dp125
g73
g74
sg75
S'When showing pass edit view, if the cell has been set, hide the password for security.'
p126
sg77
S'TODO grabbed from src/Passone/Passone/CPPassEditViewManager.m, line 75.'
p127
sg79
I01
sg80
S'2013-07-02 21:16:13'
p128
sg82
g118
sg84
S'done'
p129
sa(dp130
S'author'
p131
S'TODO grabber'
p132
sS'text'
p133
S'When showing pass edit view, animate its background color if pass cell is gray.'
p134
sS'detail'
p135
S'TODO grabbed from src/Passone/Passone/CPPassEditViewManager.m, line 61.'
p136
sS'exported'
p137
I01
sS'time'
p138
S'2013-07-04 17:52:44'
p139
sS'path'
p140
S'src/Passone/Passone/CPPassEditViewManager.m'
p141
sS'condition'
p142
S'done'
p143
sa(dp144
S'author'
p145
S'TODO grabber'
p146
sS'text'
p147
S"Move 'backgroundColorOfPassword:' into CPPassword"
p148
sS'detail'
p149
S'TODO grabbed from src/Passone/Passone/CPPassGridManager.m, line 151.'
p150
sS'exported'
p151
I01
sS'time'
p152
S'2013-07-04 17:55:52'
p153
sS'path'
p154
S'src/Passone/Passone/CPPassGridManager.m'
p155
sS'condition'
p156
g143
sa(dp157
S'author'
p158
S'TODO grabber'
p159
sS'text'
p160
S'If password text is set to empty, mark it with not used.'
p161
sS'detail'
p162
S'TODO grabbed from src/Passone/Passone/CPPassDataManager.m, line 89.'
p163
sS'exported'
p164
I01
sS'time'
p165
S'2013-07-04 18:05:54'
p166
sS'path'
p167
S'src/Passone/Passone/CPPassDataManager.m'
p168
sS'condition'
p169
S'done'
p170
sa(dp171
S'author'
p172
S'TODO grabber'
p173
sS'text'
p174
S'When hiding pass edit view, animate its background color if pass cell is gray.'
p175
sS'detail'
p176
S'TODO grabbed from src/Passone/Passone/CPPassEditViewManager.m, line 135.'
p177
sS'exported'
p178
I01
sS'time'
p179
S'2013-07-04 18:07:51'
p180
sS'path'
p181
S'src/Passone/Passone/CPPassEditViewManager.m'
p182
sS'condition'
p183
S'done'
p184
sa(dp185
S'author'
p186
S'TODO grabber'
p187
sS'text'
p188
S'Tap once on pass cell to copy password. Tap twice to show pass edit view.'
p189
sS'detail'
p190
S'TODO grabbed from src/Passone/Passone/CPPassCell.m, line 44.'
p191
sS'exported'
p192
I01
sS'time'
p193
S'2013-07-04 18:32:57'
p194
sS'path'
p195
S'src/Passone/Passone/CPPassCell.m'
p196
sS'condition'
p197
S'done'
p198
sa(dp199
S'author'
p200
S'TODO grabber'
p201
sS'text'
p202
S'Show notification when removing a pass cell by setting an empty text.'
p203
sS'detail'
p204
S'TODO grabbed from src/Passone/Passone/CPPassDataManager.m, line 80.'
p205
sS'exported'
p206
I01
sS'time'
p207
S'2013-07-05 18:28:53'
p208
sS'path'
p209
S'src/Passone/Passone/CPPassDataManager.m'
p210
sS'condition'
p211
S'done'
p212
sa(dp213
S'author'
p214
S'TODO grabber'
p215
sS'text'
p216
S'Handling pass cell pan began, start removing animation.'
p217
sS'detail'
p218
S'TODO grabbed from src/Passone/Passone/CPPassCell.m, line 80.'
p219
sS'exported'
p220
I01
sS'time'
p221
S'2013-07-05 18:38:36'
p222
sS'path'
p223
S'src/Passone/Passone/CPPassCell.m'
p224
sS'condition'
p225
S'done'
p226
sa(dp227
g214
g215
sg216
S'Handling pass cell pan changed, record translation and animate.'
p228
sg218
S'TODO grabbed from src/Passone/Passone/CPPassCell.m, line 89.'
p229
sg220
I01
sg221
S'2013-07-05 18:38:36'
p230
sg223
g224
sg225
g226
sa(dp231
g214
g215
sg216
S'Handling pass cell pan ended, stop removing animation.'
p232
sg218
S'TODO grabbed from src/Passone/Passone/CPPassCell.m, line 134.'
p233
sg220
I01
sg221
S'2013-07-05 18:38:36'
p234
sg223
g224
sg225
S'done'
p235
sa(dp236
g214
g215
sg216
S'Handling pass cell pan ended, check if translation reach 50%.'
p237
sg218
S'TODO grabbed from src/Passone/Passone/CPPassCell.m, line 135.'
p238
sg220
I01
sg221
S'2013-07-05 18:38:36'
p239
sg223
g224
sg225
g235
sa(dp240
g214
g215
sg216
S'Handling pass cell pan ended, may directly access model instead of delegate.'
p241
sg218
S'TODO grabbed from src/Passone/Passone/CPPassCell.m, line 136.'
p242
sg220
I01
sg221
S'2013-07-05 18:38:36'
p243
sg223
g224
sg225
g235
sa(dp244
S'author'
p245
S'TODO grabber'
p246
sS'text'
p247
S"Handling pass cell pan changed, adding text 'Swipe/Release to remove'."
p248
sS'detail'
p249
S'TODO grabbed from src/Passone/Passone/CPPassCell.m, line 122.'
p250
sS'exported'
p251
I01
sS'time'
p252
S'2013-07-06 18:23:11'
p253
sS'path'
p254
S'src/Passone/Passone/CPPassCell.m'
p255
sS'condition'
p256
S'done'
p257
sa(dp258
g245
g246
sg247
S'Move creation of CPNotificationCenter to proper place.'
p259
sg249
S'TODO grabbed from src/Passone/Passone/CPPassGridManager.m, line 81.'
p260
sg251
I01
sg252
S'2013-07-06 18:23:11'
p261
sg254
S'src/Passone/Passone/CPPassGridManager.m'
p262
sg256
S'done'
p263
sa(dp264
S'author'
p265
S'TODO grabber'
p266
sS'text'
p267
S'Adjust font of pass cell removing label.'
p268
sS'detail'
p269
S'TODO grabbed from src/Passone/Passone/CPPassCell.m, line 122.'
p270
sS'exported'
p271
I00
sS'time'
p272
S'2013-07-06 21:10:14'
p273
sS'path'
p274
S'src/Passone/Passone/CPPassCell.m'
p275
sS'condition'
p276
g85
sa(dp277
S'author'
p278
S'TODO grabber'
p279
sS'text'
p280
S'Change behavior of pass cell removing view & label if cannot toggle remove state.'
p281
sS'detail'
p282
S'TODO grabbed from src/Passone/Passone/CPPassCell.m, line 179.'
p283
sS'exported'
p284
I00
sS'time'
p285
S'2013-07-06 21:28:07'
p286
sS'path'
p287
S'src/Passone/Passone/CPPassCell.m'
p288
sS'condition'
p289
g85
sa(dp290
S'author'
p291
S'TODO grabber'
p292
sS'text'
p293
S'Write code to start removing a memo cell.'
p294
sS'detail'
p295
S'TODO grabbed from src/Passone/Passone/CPSearchViewManager.m, line 248.'
p296
sS'exported'
p297
I01
sS'time'
p298
S'2013-07-17 18:37:03'
p299
sS'path'
p300
S'src/Passone/Passone/CPSearchViewManager.m'
p301
sS'condition'
p302
S'done'
p303
sa(dp304
g291
g292
sg293
S'Write code to continue removing a memo cell.'
p305
sg295
S'TODO grabbed from src/Passone/Passone/CPSearchViewManager.m, line 262.'
p306
sg297
I01
sg298
S'2013-07-17 18:37:03'
p307
sg300
g301
sg302
g303
sa(dp308
g291
g292
sg293
S'Write code to stop removing a memo cell.'
p309
sg295
S'TODO grabbed from src/Passone/Passone/CPSearchViewManager.m, line 299.'
p310
sg297
I00
sg298
S'2013-07-17 18:37:03'
p311
sg300
g301
sg302
S'remv'
p312
sa(dp313
S'author'
p314
S'TODO grabber'
p315
sS'text'
p316
S"When removing a memo cell, show 'Swipe/Release to remove'."
p317
sS'detail'
p318
S'TODO grabbed from src/Passone/Passone/CPSearchViewManager.m, line 286.'
p319
sS'exported'
p320
I00
sS'time'
p321
S'2013-07-18 18:40:19'
p322
sS'path'
p323
S'src/Passone/Passone/CPSearchViewManager.m'
p324
sS'condition'
p325
S'remv'
p326
sa(dp327
S'author'
p328
S'TODO grabber'
p329
sS'text'
p330
S'Set the return key type of text field in Pass Edit View to done.'
p331
sS'detail'
p332
S'TODO grabbed from src/Passone/Passone/CPPassEditViewManager.m, line 169.'
p333
sS'exported'
p334
I01
sS'time'
p335
S'2013-08-03 16:18:40'
p336
sS'path'
p337
S'src/Passone/Passone/CPPassEditViewManager.m'
p338
sS'condition'
p339
S'done'
p340
sa(dp341
S'author'
p342
S'TODO grabber'
p343
sS'text'
p344
S"When removing a memo cell, show 'Swipe/Release to remove'."
p345
sS'detail'
p346
S'TODO grabbed from src/Passone/Passone/CPMemoCollectionViewManager.m, line 172.'
p347
sS'exported'
p348
I01
sS'time'
p349
S'2013-08-04 16:45:07'
p350
sS'path'
p351
S'src/Passone/Passone/CPMemoCollectionViewManager.m'
p352
sS'condition'
p353
S'done'
p354
sa(dp355
g342
g343
sg344
S'Write code to stop removing a memo cell.'
p356
sg346
S'TODO grabbed from src/Passone/Passone/CPMemoCollectionViewManager.m, line 184.'
p357
sg348
I01
sg349
S'2013-08-04 16:45:07'
p358
sg351
g352
sg353
S'done'
p359
sa(dp360
S'author'
p361
S'TODO grabber'
p362
sS'text'
p363
S'Add animation for removing a memo cell.'
p364
sS'detail'
p365
S'TODO grabbed from src/Passone/Passone/CPMemoCollectionViewManager.m, line 225.'
p366
sS'exported'
p367
I01
sS'time'
p368
S'2013-08-05 18:38:59'
p369
sS'path'
p370
S'src/Passone/Passone/CPMemoCollectionViewManager.m'
p371
sS'condition'
p372
S'done'
p373
sa(dp374
S'author'
p375
S'TODO grabber'
p376
sS'text'
p377
S'Improve animation for removing a memo cell.'
p378
sS'detail'
p379
S'TODO grabbed from src/Passone/Passone/CPMemoCollectionViewManager.m, line 235.'
p380
sS'exported'
p381
I00
sS'time'
p382
S'2013-08-09 18:29:39'
p383
sS'path'
p384
S'src/Passone/Passone/CPMemoCollectionViewManager.m'
p385
sS'condition'
p386
g85
sa(dp387
S'author'
p388
S'TODO grabber'
p389
sS'text'
p390
S'Adjust font of label in main password input view.'
p391
sS'detail'
p392
S'TODO grabbed from src/Passone/Passone/CPMainPasswordManager.m, line 165.'
p393
sS'exported'
p394
I00
sS'time'
p395
S'2013-08-16 18:02:14'
p396
sS'path'
p397
S'src/Passone/Passone/CPMainPasswordManager.m'
p398
sS'condition'
p399
g85
sa(dp400
g388
g389
sg390
S'Add a button in main password input view.'
p401
sg392
S'TODO grabbed from src/Passone/Passone/CPMainPasswordManager.m, line 191.'
p402
sg394
I01
sg395
S'2013-08-16 18:02:14'
p403
sg397
g398
sg399
S'done'
p404
sa(dp405
S'author'
p406
S'TODO grabber'
p407
sS'text'
p408
S'Determine if the memo cell should fall back to original position when you start removing after it is raised up when editing.'
p409
sS'detail'
p410
S'TODO grabbed from src/Passone/Passone/CPMemoCollectionViewManager.m, line 172.'
p411
sS'exported'
p412
I00
sS'time'
p413
S'2013-08-19 18:20:21'
p414
sS'path'
p415
S'src/Passone/Passone/CPMemoCollectionViewManager.m'
p416
sS'condition'
p417
g85
sa(dp418
S'author'
p419
S'TODO grabber'
p420
sS'text'
p421
S'Stop it if being currently editing memo cells in pass edit view.'
p422
sS'detail'
p423
S'TODO grabbed from src/Passone/Passone/CPSearchViewManager.m, line 188.'
p424
sS'exported'
p425
I00
sS'time'
p426
S'2013-08-19 18:28:49'
p427
sS'path'
p428
S'src/Passone/Passone/CPSearchViewManager.m'
p429
sS'condition'
p430
g85
sa(dp431
S'author'
p432
S'TODO grabber'
p433
sS'text'
p434
S'When removing pass cell, use images instead of single-colored views.'
p435
sS'detail'
p436
S'TODO grabbed from src/Passone/Passone/CPPassCell.m, line 105.'
p437
sS'exported'
p438
I00
sS'time'
p439
S'2013-08-19 18:36:37'
p440
sS'path'
p441
S'src/Passone/Passone/CPPassCell.m'
p442
sS'condition'
p443
g85
sa(dp444
S'author'
p445
S'TODO grabber'
p446
sS'text'
p447
S'Adjust appearance of notification labels.'
p448
sS'detail'
p449
S'TODO grabbed from src/Passone/Passone/CPNotificationCenter.m, line 100.'
p450
sS'exported'
p451
I00
sS'time'
p452
S'2013-08-20 17:17:18'
p453
sS'path'
p454
S'src/Passone/Passone/CPNotificationCenter.m'
p455
sS'condition'
p456
g85
sa(dp457
S'author'
p458
S'TODO grabber'
p459
sS'text'
p460
S'Not let keyboard hide the notifications.'
p461
sS'detail'
p462
S'TODO grabbed from src/Passone/Passone/CPNotificationCenter.m, line 61.'
p463
sS'exported'
p464
I01
sS'time'
p465
S'2013-08-20 17:41:38'
p466
sS'path'
p467
S'src/Passone/Passone/CPNotificationCenter.m'
p468
sS'condition'
p469
S'done'
p470
sa(dp471
S'author'
p472
S'TODO grabber'
p473
sS'text'
p474
S'Determine if the keyboard is splited or not when resize notification come to memo collection view manager.'
p475
sS'detail'
p476
S'TODO grabbed from src/Passone/Passone/CPMemoCollectionViewManager.m, line 274.'
p477
sS'exported'
p478
I01
sS'time'
p479
S'2013-08-20 17:57:41'
p480
sS'path'
p481
S'src/Passone/Passone/CPMemoCollectionViewManager.m'
p482
sS'condition'
p483
S'done'
p484
sa(dp485
g472
g473
sg474
S'Determine if the keyboard is splited or not when resize notification come to notification center.'
p486
sg476
S'TODO grabbed from src/Passone/Passone/CPNotificationCenter.m, line 66.'
p487
sg478
I01
sg479
S'2013-08-20 17:57:41'
p488
sg481
S'src/Passone/Passone/CPNotificationCenter.m'
p489
sg483
g484
sa(dp490
g472
g473
sg474
S"Not change notification labels' position if keyboard hide and then show immediately."
p491
sg476
S'TODO grabbed from src/Passone/Passone/CPNotificationCenter.m, line 83.'
p492
sg478
I00
sg479
S'2013-08-20 17:57:41'
p493
sg481
g489
sg483
g85
sa(dp494
S'author'
p495
S'TODO grabber'
p496
sS'text'
p497
S'Figure out why editing cell will not rise if starting edit cell just after search bar.'
p498
sS'detail'
p499
S'TODO grabbed from src/Passone/Passone/CPMemoCollectionViewManager.m, line 274.'
p500
sS'exported'
p501
I00
sS'time'
p502
S'2013-08-20 18:41:30'
p503
sS'path'
p504
S'src/Passone/Passone/CPMemoCollectionViewManager.m'
p505
sS'condition'
p506
g85
sa(dp507
S'author'
p508
S'TODO grabber'
p509
sS'text'
p510
S"Use other advertisements when apple's iAd is not reachable."
p511
sS'detail'
p512
S'TODO grabbed from src/Passone/Passone/CPAdManager.m, line 64.'
p513
sS'exported'
p514
I00
sS'time'
p515
S'2013-08-22 17:57:56'
p516
sS'path'
p517
S'src/Passone/Passone/CPAdManager.m'
p518
sS'condition'
p519
g85
sa.