(lp0
(dp1
S'author'
p2
S'TODO grabber'
p3
sS'text'
p4
S'Add padding to notification labels, maybe also border radius.'
p5
sS'detail'
p6
S'TODO grabbed from /Users/wangsw/Workspace/ObjectC/Passone/src/Passone/Passone/CPNotificationCenter.m, line 70.'
p7
sS'exported'
p8
I01
sS'time'
p9
S'2013-06-29 18:42:26'
p10
sS'path'
p11
S'/Users/wangsw/Workspace/ObjectC/Passone/src/Passone/Passone/CPNotificationCenter.m'
p12
sS'condition'
p13
S'done'
p14
saNaNaNaNaNaNa(dp15
g2
g3
sg4
S'Show the password edit view with an animation of alpha from 0.0 to 1.0.'
p16
sg6
S'TODO grabbed from /Users/wangsw/Workspace/ObjectC/Passone/src/Passone/Passone/CPPassEditViewManager.m, line 74.'
p17
sg8
I01
sg9
S'2013-06-29 18:42:26'
p18
sg11
S'/Users/wangsw/Workspace/ObjectC/Passone/src/Passone/Passone/CPPassEditViewManager.m'
p19
sg13
S'done'
p20
sa(dp21
g2
g3
sg4
S'Remove password edit view with an animation of alpha from 0.0 to 1.0.'
p22
sg6
S'TODO grabbed from /Users/wangsw/Workspace/ObjectC/Passone/src/Passone/Passone/CPPassEditViewManager.m, line 120.'
p23
sg8
I01
sg9
S'2013-06-29 18:42:26'
p24
sg11
g19
sg13
g20
sa(dp25
g2
g3
sg4
S'(IN UNIT TEST) Use changable data to replace @"changed".'
p26
sg6
S'TODO grabbed from /Users/wangsw/Workspace/ObjectC/Passone/src/Passone/PassoneTests/CPPassDataManagerTests.m, line 47.'
p27
sg8
I00
sg9
S'2013-06-29 18:42:26'
p28
sg11
S'/Users/wangsw/Workspace/ObjectC/Passone/src/Passone/PassoneTests/CPPassDataManagerTests.m'
p29
sg13
S'remv'
p30
saNa(dp31
S'author'
p32
S'TODO grabber'
p33
sS'text'
p34
S'Change height of notification labels for longer text.'
p35
sS'detail'
p36
S'TODO grabbed from /Users/wangsw/Workspace/ObjectC/Passone/src/Passone/Passone/CPNotificationCenter.m, line 71.'
p37
sS'exported'
p38
I01
sS'time'
p39
S'2013-06-29 20:19:21'
p40
sS'path'
p41
S'/Users/wangsw/Workspace/ObjectC/Passone/src/Passone/Passone/CPNotificationCenter.m'
p42
sS'condition'
p43
g14
sa(dp44
S'author'
p45
S'TODO grabber'
p46
sS'text'
p47
S"Calculated notification label width doesn't fit the pass grid. 1px difference. Need change."
p48
sS'detail'
p49
S'TODO grabbed from /Users/wangsw/Workspace/ObjectC/Passone/src/Passone/Passone/CPNotificationCenter.m, line 54.'
p50
sS'exported'
p51
I01
sS'time'
p52
S'2013-06-30 08:57:28'
p53
sS'path'
p54
S'/Users/wangsw/Workspace/ObjectC/Passone/src/Passone/Passone/CPNotificationCenter.m'
p55
sS'condition'
p56
S'done'
p57
saNaNa(dp58
S'author'
p59
S'TODO grabber'
p60
sS'text'
p61
S'Adjust pass cell shadow.'
p62
sS'detail'
p63
S'TODO grabbed from /Users/codingpotato/Development/Passone/src/Passone/Passone/CPPassCell.m, line 27.'
p64
sS'exported'
p65
I00
sS'time'
p66
S'2013-07-02 13:21:38'
p67
sS'path'
p68
S'/Users/codingpotato/Development/Passone/src/Passone/Passone/CPPassCell.m'
p69
sS'condition'
p70
S'remv'
p71
saNaNaNaNaNaNaNaNa(dp72
S'author'
p73
S'TODO grabber'
p74
sS'text'
p75
S'Limit the number of notifications.'
p76
sS'detail'
p77
S'TODO grabbed from src/Passone/Passone/CPNotificationCenter.m, line 59.'
p78
sS'exported'
p79
I00
sS'time'
p80
S'2013-07-02 21:16:13'
p81
sS'path'
p82
S'src/Passone/Passone/CPNotificationCenter.m'
p83
sS'condition'
p84
S'open'
p85
sa(dp86
g73
g74
sg75
S'Determine how long a notification should stay on the screen.'
p87
sg77
S'TODO grabbed from src/Passone/Passone/CPNotificationCenter.m, line 110.'
p88
sg79
I00
sg80
S'2013-07-02 21:16:13'
p89
sg82
g83
sg84
g85
sa(dp90
g73
g74
sg75
S'Now use long press to simulate two-finger swipe, change it later.'
p91
sg77
S'TODO grabbed from src/Passone/Passone/CPPassCell.m, line 57.'
p92
sg79
I00
sg80
S'2013-07-02 21:16:13'
p93
sg82
S'src/Passone/Passone/CPPassCell.m'
p94
sg84
S'remv'
p95
sa(dp96
g73
g74
sg75
S'The third and last two colors for cells are too similar, so they need to be changed.'
p97
sg77
S'TODO grabbed from src/Passone/Passone/CPPassDataManager.m, line 59.'
p98
sg79
I00
sg80
S'2013-07-02 21:16:13'
p99
sg82
S'src/Passone/Passone/CPPassDataManager.m'
p100
sg84
g85
sa(dp101
g73
g74
sg75
S'BUG! Cannot undo before setPasswordText.'
p102
sg77
S'TODO grabbed from src/Passone/Passone/CPPassDataManager.m, line 115.'
p103
sg79
I01
sg80
S'2013-07-02 21:16:13'
p104
sg82
g100
sg84
S'done'
p105
sa(dp106
g73
g74
sg75
S'MAY ABORT! Handle the error appropriately when saving context.'
p107
sg77
S'TODO grabbed from src/Passone/Passone/CPPassDataManager.m, line 178.'
p108
sg79
I00
sg80
S'2013-07-02 21:16:13'
p109
sg82
g100
sg84
g85
sa(dp110
g73
g74
sg75
S'MAY ABORT! Handle the error appropriately when initializing persistent store coordinator.'
p111
sg77
S'TODO grabbed from src/Passone/Passone/CPPassDataManager.m, line 215.'
p112
sg79
I00
sg80
S'2013-07-02 21:16:13'
p113
sg82
g100
sg84
g85
sa(dp114
g73
g74
sg75
S"When showing pass edit view, check 'password.isUsed'."
p115
sg77
S'TODO grabbed from src/Passone/Passone/CPPassEditViewManager.m, line 61.'
p116
sg79
I01
sg80
S'2013-07-02 21:16:13'
p117
sg82
S'src/Passone/Passone/CPPassEditViewManager.m'
p118
sg84
S'done'
p119
sa(dp120
g73
g74
sg75
S'When showing pass edit view, if the cell is unset, focus on the text field.'
p121
sg77
S'TODO grabbed from src/Passone/Passone/CPPassEditViewManager.m, line 72.'
p122
sg79
I01
sg80
S'2013-07-02 21:16:13'
p123
sg82
g118
sg84
S'done'
p124
sa(dp125
g73
g74
sg75
S'When showing pass edit view, if the cell has been set, hide the password for security.'
p126
sg77
S'TODO grabbed from src/Passone/Passone/CPPassEditViewManager.m, line 75.'
p127
sg79
I01
sg80
S'2013-07-02 21:16:13'
p128
sg82
g118
sg84
S'done'
p129
sa(dp130
S'author'
p131
S'TODO grabber'
p132
sS'text'
p133
S'When showing pass edit view, animate its background color if pass cell is gray.'
p134
sS'detail'
p135
S'TODO grabbed from src/Passone/Passone/CPPassEditViewManager.m, line 61.'
p136
sS'exported'
p137
I01
sS'time'
p138
S'2013-07-04 17:52:44'
p139
sS'path'
p140
S'src/Passone/Passone/CPPassEditViewManager.m'
p141
sS'condition'
p142
S'done'
p143
sa(dp144
S'author'
p145
S'TODO grabber'
p146
sS'text'
p147
S"Move 'backgroundColorOfPassword:' into CPPassword"
p148
sS'detail'
p149
S'TODO grabbed from src/Passone/Passone/CPPassGridManager.m, line 151.'
p150
sS'exported'
p151
I01
sS'time'
p152
S'2013-07-04 17:55:52'
p153
sS'path'
p154
S'src/Passone/Passone/CPPassGridManager.m'
p155
sS'condition'
p156
g143
sa(dp157
S'author'
p158
S'TODO grabber'
p159
sS'text'
p160
S'If password text is set to empty, mark it with not used.'
p161
sS'detail'
p162
S'TODO grabbed from src/Passone/Passone/CPPassDataManager.m, line 89.'
p163
sS'exported'
p164
I01
sS'time'
p165
S'2013-07-04 18:05:54'
p166
sS'path'
p167
S'src/Passone/Passone/CPPassDataManager.m'
p168
sS'condition'
p169
S'done'
p170
sa(dp171
S'author'
p172
S'TODO grabber'
p173
sS'text'
p174
S'When hiding pass edit view, animate its background color if pass cell is gray.'
p175
sS'detail'
p176
S'TODO grabbed from src/Passone/Passone/CPPassEditViewManager.m, line 135.'
p177
sS'exported'
p178
I01
sS'time'
p179
S'2013-07-04 18:07:51'
p180
sS'path'
p181
S'src/Passone/Passone/CPPassEditViewManager.m'
p182
sS'condition'
p183
S'done'
p184
sa(dp185
S'author'
p186
S'TODO grabber'
p187
sS'text'
p188
S'Tap once on pass cell to copy password. Tap twice to show pass edit view.'
p189
sS'detail'
p190
S'TODO grabbed from src/Passone/Passone/CPPassCell.m, line 44.'
p191
sS'exported'
p192
I00
sS'time'
p193
S'2013-07-04 18:32:57'
p194
sS'path'
p195
S'src/Passone/Passone/CPPassCell.m'
p196
sS'condition'
p197
g85
sa(dp198
S'author'
p199
S'TODO grabber'
p200
sS'text'
p201
S'Show notification when removing a pass cell by setting an empty text.'
p202
sS'detail'
p203
S'TODO grabbed from src/Passone/Passone/CPPassDataManager.m, line 80.'
p204
sS'exported'
p205
I00
sS'time'
p206
S'2013-07-05 18:28:53'
p207
sS'path'
p208
S'src/Passone/Passone/CPPassDataManager.m'
p209
sS'condition'
p210
g85
sa(dp211
S'author'
p212
S'TODO grabber'
p213
sS'text'
p214
S'Handling pass cell pan began, start removing animation.'
p215
sS'detail'
p216
S'TODO grabbed from src/Passone/Passone/CPPassCell.m, line 80.'
p217
sS'exported'
p218
I01
sS'time'
p219
S'2013-07-05 18:38:36'
p220
sS'path'
p221
S'src/Passone/Passone/CPPassCell.m'
p222
sS'condition'
p223
S'done'
p224
sa(dp225
g212
g213
sg214
S'Handling pass cell pan changed, record translation and animate.'
p226
sg216
S'TODO grabbed from src/Passone/Passone/CPPassCell.m, line 89.'
p227
sg218
I01
sg219
S'2013-07-05 18:38:36'
p228
sg221
g222
sg223
g224
sa(dp229
g212
g213
sg214
S'Handling pass cell pan ended, stop removing animation.'
p230
sg216
S'TODO grabbed from src/Passone/Passone/CPPassCell.m, line 134.'
p231
sg218
I01
sg219
S'2013-07-05 18:38:36'
p232
sg221
g222
sg223
S'done'
p233
sa(dp234
g212
g213
sg214
S'Handling pass cell pan ended, check if translation reach 50%.'
p235
sg216
S'TODO grabbed from src/Passone/Passone/CPPassCell.m, line 135.'
p236
sg218
I01
sg219
S'2013-07-05 18:38:36'
p237
sg221
g222
sg223
g233
sa(dp238
g212
g213
sg214
S'Handling pass cell pan ended, may directly access model instead of delegate.'
p239
sg216
S'TODO grabbed from src/Passone/Passone/CPPassCell.m, line 136.'
p240
sg218
I01
sg219
S'2013-07-05 18:38:36'
p241
sg221
g222
sg223
g233
sa(dp242
S'author'
p243
S'TODO grabber'
p244
sS'text'
p245
S"Handling pass cell pan changed, adding text 'Swipe/Release to remove'."
p246
sS'detail'
p247
S'TODO grabbed from src/Passone/Passone/CPPassCell.m, line 122.'
p248
sS'exported'
p249
I01
sS'time'
p250
S'2013-07-06 18:23:11'
p251
sS'path'
p252
S'src/Passone/Passone/CPPassCell.m'
p253
sS'condition'
p254
S'done'
p255
sa(dp256
g243
g244
sg245
S'Move creation of CPNotificationCenter to proper place.'
p257
sg247
S'TODO grabbed from src/Passone/Passone/CPPassGridManager.m, line 81.'
p258
sg249
I01
sg250
S'2013-07-06 18:23:11'
p259
sg252
S'src/Passone/Passone/CPPassGridManager.m'
p260
sg254
S'done'
p261
sa(dp262
S'author'
p263
S'TODO grabber'
p264
sS'text'
p265
S'Adjust font of pass cell removing label.'
p266
sS'detail'
p267
S'TODO grabbed from src/Passone/Passone/CPPassCell.m, line 107.'
p268
sS'exported'
p269
I00
sS'time'
p270
S'2013-07-06 21:10:14'
p271
sS'path'
p272
S'src/Passone/Passone/CPPassCell.m'
p273
sS'condition'
p274
g85
sa(dp275
S'author'
p276
S'TODO grabber'
p277
sS'text'
p278
S'Change behavior of pass cell removing view & label if cannot toggle remove state.'
p279
sS'detail'
p280
S'TODO grabbed from src/Passone/Passone/CPPassCell.m, line 164.'
p281
sS'exported'
p282
I00
sS'time'
p283
S'2013-07-06 21:28:07'
p284
sS'path'
p285
S'src/Passone/Passone/CPPassCell.m'
p286
sS'condition'
p287
g85
sa(dp288
S'author'
p289
S'TODO grabber'
p290
sS'text'
p291
S'Write code to start removing a memo cell.'
p292
sS'detail'
p293
S'TODO grabbed from src/Passone/Passone/CPSearchViewManager.m, line 248.'
p294
sS'exported'
p295
I01
sS'time'
p296
S'2013-07-17 18:37:03'
p297
sS'path'
p298
S'src/Passone/Passone/CPSearchViewManager.m'
p299
sS'condition'
p300
S'done'
p301
sa(dp302
g289
g290
sg291
S'Write code to continue removing a memo cell.'
p303
sg293
S'TODO grabbed from src/Passone/Passone/CPSearchViewManager.m, line 262.'
p304
sg295
I01
sg296
S'2013-07-17 18:37:03'
p305
sg298
g299
sg300
g301
sa(dp306
g289
g290
sg291
S'Write code to stop removing a memo cell.'
p307
sg293
S'TODO grabbed from src/Passone/Passone/CPSearchViewManager.m, line 299.'
p308
sg295
I00
sg296
S'2013-07-17 18:37:03'
p309
sg298
g299
sg300
S'remv'
p310
sa(dp311
S'author'
p312
S'TODO grabber'
p313
sS'text'
p314
S"When removing a memo cell, show 'Swipe/Release to remove'."
p315
sS'detail'
p316
S'TODO grabbed from src/Passone/Passone/CPSearchViewManager.m, line 286.'
p317
sS'exported'
p318
I00
sS'time'
p319
S'2013-07-18 18:40:19'
p320
sS'path'
p321
S'src/Passone/Passone/CPSearchViewManager.m'
p322
sS'condition'
p323
S'remv'
p324
sa(dp325
S'author'
p326
S'TODO grabber'
p327
sS'text'
p328
S'Set the return key type of text field in Pass Edit View to done.'
p329
sS'detail'
p330
S'TODO grabbed from src/Passone/Passone/CPPassEditViewManager.m, line 169.'
p331
sS'exported'
p332
I01
sS'time'
p333
S'2013-08-03 16:18:40'
p334
sS'path'
p335
S'src/Passone/Passone/CPPassEditViewManager.m'
p336
sS'condition'
p337
S'done'
p338
sa(dp339
S'author'
p340
S'TODO grabber'
p341
sS'text'
p342
S"When removing a memo cell, show 'Swipe/Release to remove'."
p343
sS'detail'
p344
S'TODO grabbed from src/Passone/Passone/CPMemoCollectionViewManager.m, line 172.'
p345
sS'exported'
p346
I01
sS'time'
p347
S'2013-08-04 16:45:07'
p348
sS'path'
p349
S'src/Passone/Passone/CPMemoCollectionViewManager.m'
p350
sS'condition'
p351
S'done'
p352
sa(dp353
g340
g341
sg342
S'Write code to stop removing a memo cell.'
p354
sg344
S'TODO grabbed from src/Passone/Passone/CPMemoCollectionViewManager.m, line 184.'
p355
sg346
I01
sg347
S'2013-08-04 16:45:07'
p356
sg349
g350
sg351
S'done'
p357
sa(dp358
S'author'
p359
S'TODO grabber'
p360
sS'text'
p361
S'Add animation for removing a memo cell.'
p362
sS'detail'
p363
S'TODO grabbed from src/Passone/Passone/CPMemoCollectionViewManager.m, line 225.'
p364
sS'exported'
p365
I01
sS'time'
p366
S'2013-08-05 18:38:59'
p367
sS'path'
p368
S'src/Passone/Passone/CPMemoCollectionViewManager.m'
p369
sS'condition'
p370
S'done'
p371
sa(dp372
S'author'
p373
S'TODO grabber'
p374
sS'text'
p375
S'Improve animation for removing a memo cell.'
p376
sS'detail'
p377
S'TODO grabbed from src/Passone/Passone/CPMemoCollectionViewManager.m, line 219.'
p378
sS'exported'
p379
I00
sS'time'
p380
S'2013-08-09 18:29:39'
p381
sS'path'
p382
S'src/Passone/Passone/CPMemoCollectionViewManager.m'
p383
sS'condition'
p384
g85
sa(dp385
S'author'
p386
S'TODO grabber'
p387
sS'text'
p388
S'Adjust font of label in main password input view.'
p389
sS'detail'
p390
S'TODO grabbed from src/Passone/Passone/CPMainPasswordManager.m, line 136.'
p391
sS'exported'
p392
I00
sS'time'
p393
S'2013-08-16 18:02:14'
p394
sS'path'
p395
S'src/Passone/Passone/CPMainPasswordManager.m'
p396
sS'condition'
p397
g85
sa(dp398
g386
g387
sg388
S'Add a button in main password input view.'
p399
sg390
S'TODO grabbed from src/Passone/Passone/CPMainPasswordManager.m, line 163.'
p400
sg392
I00
sg393
S'2013-08-16 18:02:14'
p401
sg395
g396
sg397
g85
sa.