(lp0
(dp1
S'author'
p2
S'TODO grabber'
p3
sS'text'
p4
S'Add padding to notification labels, maybe also border radius.'
p5
sS'detail'
p6
S'TODO grabbed from /Users/wangsw/Workspace/ObjectC/Passone/src/Passone/Passone/CPNotificationCenter.m, line 70.'
p7
sS'exported'
p8
I01
sS'time'
p9
S'2013-06-29 18:42:26'
p10
sS'path'
p11
S'/Users/wangsw/Workspace/ObjectC/Passone/src/Passone/Passone/CPNotificationCenter.m'
p12
sS'condition'
p13
S'done'
p14
saNaNaNaNaNaNa(dp15
g2
g3
sg4
S'Show the password edit view with an animation of alpha from 0.0 to 1.0.'
p16
sg6
S'TODO grabbed from /Users/wangsw/Workspace/ObjectC/Passone/src/Passone/Passone/CPPassEditViewManager.m, line 74.'
p17
sg8
I01
sg9
S'2013-06-29 18:42:26'
p18
sg11
S'/Users/wangsw/Workspace/ObjectC/Passone/src/Passone/Passone/CPPassEditViewManager.m'
p19
sg13
S'done'
p20
sa(dp21
g2
g3
sg4
S'Remove password edit view with an animation of alpha from 0.0 to 1.0.'
p22
sg6
S'TODO grabbed from /Users/wangsw/Workspace/ObjectC/Passone/src/Passone/Passone/CPPassEditViewManager.m, line 120.'
p23
sg8
I01
sg9
S'2013-06-29 18:42:26'
p24
sg11
g19
sg13
g20
sa(dp25
g2
g3
sg4
S'(IN UNIT TEST) Use changable data to replace @"changed".'
p26
sg6
S'TODO grabbed from /Users/wangsw/Workspace/ObjectC/Passone/src/Passone/PassoneTests/CPPassDataManagerTests.m, line 47.'
p27
sg8
I00
sg9
S'2013-06-29 18:42:26'
p28
sg11
S'/Users/wangsw/Workspace/ObjectC/Passone/src/Passone/PassoneTests/CPPassDataManagerTests.m'
p29
sg13
S'remv'
p30
saNa(dp31
S'author'
p32
S'TODO grabber'
p33
sS'text'
p34
S'Change height of notification labels for longer text.'
p35
sS'detail'
p36
S'TODO grabbed from /Users/wangsw/Workspace/ObjectC/Passone/src/Passone/Passone/CPNotificationCenter.m, line 71.'
p37
sS'exported'
p38
I01
sS'time'
p39
S'2013-06-29 20:19:21'
p40
sS'path'
p41
S'/Users/wangsw/Workspace/ObjectC/Passone/src/Passone/Passone/CPNotificationCenter.m'
p42
sS'condition'
p43
g14
sa(dp44
S'author'
p45
S'TODO grabber'
p46
sS'text'
p47
S"Calculated notification label width doesn't fit the pass grid. 1px difference. Need change."
p48
sS'detail'
p49
S'TODO grabbed from /Users/wangsw/Workspace/ObjectC/Passone/src/Passone/Passone/CPNotificationCenter.m, line 54.'
p50
sS'exported'
p51
I01
sS'time'
p52
S'2013-06-30 08:57:28'
p53
sS'path'
p54
S'/Users/wangsw/Workspace/ObjectC/Passone/src/Passone/Passone/CPNotificationCenter.m'
p55
sS'condition'
p56
S'done'
p57
sa(dp58
S'author'
p59
S'TODO grabber'
p60
sS'text'
p61
S'Limit the number of notifications.'
p62
sS'detail'
p63
S'TODO grabbed from /Users/codingpotato/Development/Passone/src/Passone/Passone/CPNotificationCenter.m, line 63.'
p64
sS'exported'
p65
I00
sS'time'
p66
S'2013-07-02 13:21:38'
p67
sS'path'
p68
S'/Users/codingpotato/Development/Passone/src/Passone/Passone/CPNotificationCenter.m'
p69
sS'condition'
p70
S'open'
p71
sa(dp72
g59
g60
sg61
S'Determine how long a notification should stay on the screen.'
p73
sg63
S'TODO grabbed from /Users/codingpotato/Development/Passone/src/Passone/Passone/CPNotificationCenter.m, line 113.'
p74
sg65
I00
sg66
S'2013-07-02 13:21:38'
p75
sg68
g69
sg70
g71
sa(dp76
g59
g60
sg61
S'Adjust pass cell shadow.'
p77
sg63
S'TODO grabbed from /Users/codingpotato/Development/Passone/src/Passone/Passone/CPPassCell.m, line 27.'
p78
sg65
I00
sg66
S'2013-07-02 13:21:38'
p79
sg68
S'/Users/codingpotato/Development/Passone/src/Passone/Passone/CPPassCell.m'
p80
sg70
g71
sa(dp81
g59
g60
sg61
S'Now use long press to simulate two-finger swipe, change it later.'
p82
sg63
S'TODO grabbed from /Users/codingpotato/Development/Passone/src/Passone/Passone/CPPassCell.m, line 62.'
p83
sg65
I00
sg66
S'2013-07-02 13:21:38'
p84
sg68
g80
sg70
g71
sa(dp85
g59
g60
sg61
S'The third and last two colors for cells are too similar, so they need to be changed.'
p86
sg63
S'TODO grabbed from /Users/codingpotato/Development/Passone/src/Passone/Passone/CPPassDataManager.m, line 57.'
p87
sg65
I00
sg66
S'2013-07-02 13:21:38'
p88
sg68
S'/Users/codingpotato/Development/Passone/src/Passone/Passone/CPPassDataManager.m'
p89
sg70
g71
sa(dp90
g59
g60
sg61
S'BUG! cannot undo before setPasswordText.'
p91
sg63
S'TODO grabbed from /Users/codingpotato/Development/Passone/src/Passone/Passone/CPPassDataManager.m, line 115.'
p92
sg65
I00
sg66
S'2013-07-02 13:21:38'
p93
sg68
g89
sg70
g71
sa(dp94
g59
g60
sg61
S'MAY ABORT! Handle the error appropriately when saving context.'
p95
sg63
S'TODO grabbed from /Users/codingpotato/Development/Passone/src/Passone/Passone/CPPassDataManager.m, line 148.'
p96
sg65
I00
sg66
S'2013-07-02 13:21:38'
p97
sg68
g89
sg70
g71
sa(dp98
g59
g60
sg61
S'MAY ABORT! Handle the error appropriately when initializing persistent store coordinator.'
p99
sg63
S'TODO grabbed from /Users/codingpotato/Development/Passone/src/Passone/Passone/CPPassDataManager.m, line 185.'
p100
sg65
I00
sg66
S'2013-07-02 13:21:38'
p101
sg68
g89
sg70
g71
sa(dp102
g59
g60
sg61
S"When showing pass edit view, check 'password.isUsed'."
p103
sg63
S'TODO grabbed from /Users/codingpotato/Development/Passone/src/Passone/Passone/CPPassEditViewManager.m, line 61.'
p104
sg65
I00
sg66
S'2013-07-02 13:21:38'
p105
sg68
S'/Users/codingpotato/Development/Passone/src/Passone/Passone/CPPassEditViewManager.m'
p106
sg70
g71
sa(dp107
g59
g60
sg61
S'When showing pass edit view, if the cell is unset, focus on the text field.'
p108
sg63
S'TODO grabbed from /Users/codingpotato/Development/Passone/src/Passone/Passone/CPPassEditViewManager.m, line 67.'
p109
sg65
I00
sg66
S'2013-07-02 13:21:38'
p110
sg68
g106
sg70
g71
sa(dp111
g59
g60
sg61
S'When showing pass edit view, if the cell has been set, hide the password for security.'
p112
sg63
S'TODO grabbed from /Users/codingpotato/Development/Passone/src/Passone/Passone/CPPassEditViewManager.m, line 68.'
p113
sg65
I00
sg66
S'2013-07-02 13:21:38'
p114
sg68
g106
sg70
g71
sa.